

Microchip MPLAB XC8 Assembler V2.40 build 20220703182018 
                                                                                               Tue Nov 19 14:09:03 2024

Microchip MPLAB XC8 C Compiler v2.40 (Free license) build 20220703182018 Og1 
     1                           	processor	18F46K20
     2                           	fnconf	rparam,??,?,0
     3                           	pagewidth 120
     4                           	opt	flic
     5                           	psect	idataCOMRAM,global,class=CODE,delta=1,noexec
     6                           	psect	nvCOMRAM,global,class=COMRAM,space=1,delta=1,lowdata,noexec
     7                           	psect	nvBANK0,global,class=BANK0,space=1,delta=1,lowdata,noexec
     8                           	psect	cinit,global,reloc=2,class=CODE,delta=1
     9                           	psect	bssCOMRAM,global,class=COMRAM,space=1,delta=1,lowdata,noexec
    10                           	psect	dataCOMRAM,global,class=COMRAM,space=1,delta=1,lowdata,noexec
    11                           	psect	cstackCOMRAM,global,class=COMRAM,space=1,delta=1,lowdata,noexec
    12                           	psect	text0,global,reloc=2,class=CODE,delta=1
    13                           	psect	text1,global,reloc=2,class=CODE,delta=1
    14                           	psect	text2,global,reloc=2,class=CODE,delta=1
    15                           	psect	text3,global,reloc=2,class=CODE,delta=1
    16                           	psect	text4,global,reloc=2,class=CODE,delta=1
    17                           	psect	text5,global,reloc=2,class=CODE,delta=1
    18                           	psect	text6,global,reloc=2,class=CODE,delta=1
    19                           	psect	text7,global,reloc=2,class=CODE,delta=1
    20                           	psect	text8,global,reloc=2,class=CODE,delta=1
    21                           	psect	text9,global,reloc=2,class=CODE,delta=1
    22                           	psect	text10,global,reloc=2,class=CODE,delta=1
    23                           	psect	text11,global,reloc=2,class=CODE,delta=1
    24                           	psect	text12,global,reloc=2,class=CODE,delta=1
    25                           	psect	text13,global,reloc=2,class=CODE,delta=1
    26                           	psect	text14,global,reloc=2,class=CODE,delta=1,group=2
    27                           	psect	text15,global,reloc=2,class=CODE,delta=1,group=1
    28                           	psect	text16,global,reloc=2,class=CODE,delta=1,group=1
    29                           	psect	text17,global,reloc=2,class=CODE,delta=1
    30                           	psect	text18,global,reloc=2,class=CODE,delta=1
    31                           	psect	text19,global,reloc=2,class=CODE,delta=1
    32                           	psect	text20,global,reloc=2,class=CODE,delta=1
    33                           	psect	text21,global,reloc=2,class=CODE,delta=1
    34                           	psect	text22,global,reloc=2,class=CODE,delta=1
    35                           	psect	text23,global,reloc=2,class=CODE,delta=1
    36                           	psect	text24,global,reloc=2,class=CODE,delta=1
    37                           	psect	text25,global,reloc=2,class=CODE,delta=1
    38                           	psect	text26,global,reloc=2,class=CODE,delta=1
    39                           	psect	text27,global,reloc=2,class=CODE,delta=1,group=1
    40                           	psect	text28,global,reloc=2,class=CODE,delta=1,group=1
    41                           	psect	text29,global,reloc=2,class=CODE,delta=1
    42                           	psect	text30,global,reloc=2,class=CODE,delta=1
    43                           	psect	text31,global,reloc=2,class=CODE,delta=1
    44                           	psect	text32,global,reloc=2,class=CODE,delta=1
    45                           	psect	text33,global,reloc=2,class=CODE,delta=1
    46                           	psect	text34,global,reloc=2,class=CODE,delta=1
    47                           	psect	intcode,global,reloc=2,class=CODE,delta=1
    48                           	psect	text36,global,reloc=2,class=CODE,delta=1
    49                           	psect	intsave_regs,global,class=BIGRAM,space=1,delta=1,noexec
    50                           	psect	rparam,global,class=COMRAM,space=1,delta=1,noexec
    51                           	psect	temp,global,ovrld,common,class=COMRAM,space=1,delta=1
    52                           	psect	config,global,abs,ovrld,class=CONFIG,space=4,delta=1,noexec
    53   000000                     
    54                           ; Version 2.40
    55                           ; Generated 04/07/2022 GMT
    56                           ; 
    57                           ; Copyright © 2022, Microchip Technology Inc. and its subsidiaries ("Microchip")
    58                           ; All rights reserved.
    59                           ; 
    60                           ; This software is developed by Microchip Technology Inc. and its subsidiaries ("Microch
      +                          ip").
    61                           ; 
    62                           ; Redistribution and use in source and binary forms, with or without modification, are
    63                           ; permitted provided that the following conditions are met:
    64                           ; 
    65                           ;     1. Redistributions of source code must retain the above copyright notice, this lis
      +                          t of
    66                           ;        conditions and the following disclaimer.
    67                           ; 
    68                           ;     2. Redistributions in binary form must reproduce the above copyright notice, this 
      +                          list
    69                           ;        of conditions and the following disclaimer in the documentation and/or other
    70                           ;        materials provided with the distribution. Publication is not required when
    71                           ;        this file is used in an embedded application.
    72                           ; 
    73                           ;     3. Microchip's name may not be used to endorse or promote products derived from th
      +                          is
    74                           ;        software without specific prior written permission.
    75                           ; 
    76                           ; THIS SOFTWARE IS PROVIDED BY MICROCHIP "AS IS" AND ANY EXPRESS OR IMPLIED WARRANTIES,
    77                           ; INCLUDING, BUT NOT LIMITED TO, THE IMPLIED WARRANTIES OF MERCHANTABILITY AND FITNESS F
      +                          OR
    78                           ; PURPOSE ARE DISCLAIMED.  IN NO EVENT SHALL MICROCHIP BE LIABLE FOR ANY DIRECT, INDIREC
      +                          T,
    79                           ; INCIDENTAL, SPECIAL, EXEMPLARY, OR CONSEQUENTIAL DAMAGES (INCLUDING BUT NOT LIMITED TO
    80                           ; PROCUREMENT OF SUBSTITUTE GOODS OR SERVICES; LOSS OF USE, DATA OR PROFITS; OR BUSINESS
    81                           ; INTERRUPTION) HOWSOEVER CAUSED AND ON ANY THEORY OF LIABILITY, WHETHER IN CONTRACT, ST
      +                          RICT
    82                           ; LIABILITY, OR TORT (INCLUDING NEGLIGENCE OR OTHERWISE) ARISING IN ANY WAY OUT OF THE U
      +                          SE OF
    83                           ; THIS SOFTWARE, EVEN IF ADVISED OF THE POSSIBILITY OF SUCH DAMAGE.
    84                           ; 
    85                           ; 
    86                           ; Code-generator required, PIC18F46K20 Definitions
    87                           ; 
    88                           ; SFR Addresses
    89   000000                     
    90                           	psect	idataCOMRAM
    91   000D28                     __pidataCOMRAM:
    92                           	callstack 0
    93                           
    94                           ;initializer for _led_position
    95   000D28  01                 	db	1
    96   000000                     _TMR0L	set	4054
    97   000000                     _TMR0H	set	4055
    98   000000                     _INTCON	set	4082
    99                           
   100                           	psect	nvCOMRAM
   101   000055                     __pnvCOMRAM:
   102                           	callstack 0
   103   000055                     MaquinaDeEstados@estados_INTENSIDAd:
   104                           	callstack 0
   105   000055                     	ds	2
   106   000057                     MaquinaDeEstados@estados_SWITCH:
   107                           	callstack 0
   108   000057                     	ds	2
   109   000059                     MaquinaDeEstados@estados_LED:
   110                           	callstack 0
   111   000059                     	ds	2
   112   00005B                     _confirmado_off:
   113                           	callstack 0
   114   00005B                     	ds	2
   115                           
   116                           	psect	nvBANK0
   117   000060                     __pnvBANK0:
   118                           	callstack 0
   119   000060                     MaquinaDeEstados@estados_MDE4:
   120                           	callstack 0
   121   000060                     	ds	2
   122   000000                     _INTCONbits	set	4082
   123   000000                     _LATB	set	3978
   124   000000                     _ANSEL	set	3966
   125   000000                     _PORTCbits	set	3970
   126   000000                     _LATBbits	set	3978
   127   000000                     _LATDbits	set	3980
   128   000000                     _TRISB	set	3987
   129   000000                     _TRISCbits	set	3988
   130   000000                     _TRISDbits	set	3989
   131   000000                     _OSCCON	set	4051
   132   000000                     _T0CONbits	set	4053
   133   000000                     _ANSELH	set	3967
   134                           
   135                           ; #config settings
   136                           
   137                           	psect	cinit
   138   000BCA                     __pcinit:
   139                           	callstack 0
   140   000BCA                     start_initialization:
   141                           	callstack 0
   142   000BCA                     __initialization:
   143                           	callstack 0
   144                           
   145                           ; Initialize objects allocated to COMRAM (1 bytes)
   146                           ; load TBLPTR registers with __pidataCOMRAM
   147   000BCA  0E28               	movlw	low __pidataCOMRAM
   148   000BCC  6EF6               	movwf	tblptrl,c
   149   000BCE  0E0D               	movlw	high __pidataCOMRAM
   150   000BD0  6EF7               	movwf	tblptrh,c
   151   000BD2  0E00               	movlw	low (__pidataCOMRAM shr (0+16))
   152   000BD4  6EF8               	movwf	tblptru,c
   153   000BD6  0009               	tblrd		*+	;fetch initializer
   154   000BD8  CFF5 F05D          	movff	tablat,__pdataCOMRAM
   155                           
   156                           ; Clear objects allocated to COMRAM (22 bytes)
   157   000BDC  EE00  F03F         	lfsr	0,__pbssCOMRAM
   158   000BE0  0E16               	movlw	22
   159   000BE2                     clear_0:
   160   000BE2  6AEE               	clrf	postinc0,c
   161   000BE4  06E8               	decf	wreg,f,c
   162   000BE6  E1FD               	bnz	clear_0
   163   000BE8                     end_of_initialization:
   164                           	callstack 0
   165   000BE8                     __end_of__initialization:
   166                           	callstack 0
   167   000BE8  905E               	bcf	int$flags,0,c	;clear compiler interrupt flag (level 1)
   168   000BEA  925E               	bcf	int$flags,1,c	;clear compiler interrupt flag (level 2)
   169   000BEC  0E00               	movlw	low (__Lmediumconst shr (0+16))
   170   000BEE  6EF8               	movwf	tblptru,c
   171   000BF0  0100               	movlb	0
   172   000BF2  EF6F  F006         	goto	_main	;jump to C main() function
   173                           
   174                           	psect	bssCOMRAM
   175   00003F                     __pbssCOMRAM:
   176                           	callstack 0
   177   00003F                     _t_antirebote_ini:
   178                           	callstack 0
   179   00003F                     	ds	4
   180   000043                     _cuenta_interrup:
   181                           	callstack 0
   182   000043                     	ds	4
   183   000047                     _simulacion:
   184                           	callstack 0
   185   000047                     	ds	2
   186   000049                     _intensidadlvl:
   187                           	callstack 0
   188   000049                     	ds	2
   189   00004B                     _confirmado_on:
   190                           	callstack 0
   191   00004B                     	ds	2
   192   00004D                     _botonEstadoPrevio:
   193                           	callstack 0
   194   00004D                     	ds	2
   195   00004F                     _antiReboteCounter:
   196                           	callstack 0
   197   00004F                     	ds	2
   198   000051                     _seed:
   199                           	callstack 0
   200   000051                     	ds	4
   201                           
   202                           	psect	dataCOMRAM
   203   00005D                     __pdataCOMRAM:
   204                           	callstack 0
   205   00005D                     _led_position:
   206                           	callstack 0
   207   00005D                     	ds	1
   208                           
   209                           	psect	cstackCOMRAM
   210   000001                     __pcstackCOMRAM:
   211                           	callstack 0
   212   000001                     ?_s_llave_on:
   213                           	callstack 0
   214   000001                     ?_s_llave_off:
   215                           	callstack 0
   216   000001                     ?_s_llave_up:
   217                           	callstack 0
   218   000001                     ?_s_llave_down:
   219                           	callstack 0
   220   000001                     ?_LED:
   221                           	callstack 0
   222   000001                     ?___lmul:
   223                           	callstack 0
   224   000001                     LED@Estado:
   225                           	callstack 0
   226   000001                     ___lmul@multiplier:
   227                           	callstack 0
   228                           
   229                           ; 4 bytes @ 0x0
   230   000001                     	ds	2
   231   000003                     ??_s_llave_on:
   232   000003                     ??_s_llave_up:
   233   000003                     ??_s_llave_down:
   234   000003                     ??_LED:
   235                           
   236                           ; 1 bytes @ 0x2
   237   000003                     	ds	2
   238   000005                     ___lmul@multiplicand:
   239                           	callstack 0
   240                           
   241                           ; 4 bytes @ 0x4
   242   000005                     	ds	4
   243   000009                     ___lmul@product:
   244                           	callstack 0
   245                           
   246                           ; 4 bytes @ 0x8
   247   000009                     	ds	4
   248   00000D                     ?_rand:
   249                           	callstack 0
   250                           
   251                           ; 2 bytes @ 0xC
   252   00000D                     	ds	2
   253   00000F                     ??_rand:
   254                           
   255                           ; 1 bytes @ 0xE
   256   00000F                     	ds	4
   257   000013                     ?___awmod:
   258                           	callstack 0
   259   000013                     ___awmod@dividend:
   260                           	callstack 0
   261                           
   262                           ; 2 bytes @ 0x12
   263   000013                     	ds	2
   264   000015                     ___awmod@divisor:
   265                           	callstack 0
   266                           
   267                           ; 2 bytes @ 0x14
   268   000015                     	ds	2
   269   000017                     ___awmod@counter:
   270                           	callstack 0
   271                           
   272                           ; 1 bytes @ 0x16
   273   000017                     	ds	1
   274   000018                     ___awmod@sign:
   275                           	callstack 0
   276                           
   277                           ; 1 bytes @ 0x17
   278   000018                     	ds	1
   279   000019                     ?___xxtofl:
   280                           	callstack 0
   281   000019                     ___xxtofl@val:
   282                           	callstack 0
   283                           
   284                           ; 4 bytes @ 0x18
   285   000019                     	ds	4
   286   00001D                     ??___xxtofl:
   287                           
   288                           ; 1 bytes @ 0x1C
   289   00001D                     	ds	4
   290   000021                     ___xxtofl@sign:
   291                           	callstack 0
   292                           
   293                           ; 1 bytes @ 0x20
   294   000021                     	ds	1
   295   000022                     ___xxtofl@exp:
   296                           	callstack 0
   297                           
   298                           ; 1 bytes @ 0x21
   299   000022                     	ds	1
   300   000023                     ___xxtofl@arg:
   301                           	callstack 0
   302                           
   303                           ; 4 bytes @ 0x22
   304   000023                     	ds	4
   305   000027                     ___flge@ff1:
   306                           	callstack 0
   307                           
   308                           ; 4 bytes @ 0x26
   309   000027                     	ds	4
   310   00002B                     ___flge@ff2:
   311                           	callstack 0
   312                           
   313                           ; 4 bytes @ 0x2A
   314   00002B                     	ds	4
   315   00002F                     ??___flge:
   316                           
   317                           ; 1 bytes @ 0x2E
   318   00002F                     	ds	4
   319   000033                     ?_e_antirebote:
   320                           	callstack 0
   321   000033                     ?_e_simular:
   322                           	callstack 0
   323   000033                     ?_e_noSimular:
   324                           	callstack 0
   325                           
   326                           ; 2 bytes @ 0x32
   327   000033                     	ds	2
   328   000035                     e_antirebote@res:
   329                           	callstack 0
   330   000035                     e_simular@var:
   331                           	callstack 0
   332   000035                     e_noSimular@var:
   333                           	callstack 0
   334                           
   335                           ; 4 bytes @ 0x34
   336   000035                     	ds	2
   337   000037                     ?_SWITCH:
   338                           	callstack 0
   339   000037                     ?_INTENSIDAd:
   340                           	callstack 0
   341   000037                     SWITCH@Estado:
   342                           	callstack 0
   343   000037                     INTENSIDAd@Estado:
   344                           	callstack 0
   345                           
   346                           ; 2 bytes @ 0x36
   347   000037                     	ds	2
   348   000039                     ??_SWITCH:
   349   000039                     ??_INTENSIDAd:
   350   000039                     e_simular@res:
   351                           	callstack 0
   352   000039                     e_noSimular@res:
   353                           	callstack 0
   354                           
   355                           ; 2 bytes @ 0x38
   356   000039                     	ds	2
   357   00003B                     ?_MDE4:
   358                           	callstack 0
   359   00003B                     MDE4@Estado:
   360                           	callstack 0
   361                           
   362                           ; 2 bytes @ 0x3A
   363   00003B                     	ds	2
   364   00003D                     ??_MDE4:
   365                           
   366                           ; 1 bytes @ 0x3C
   367   00003D                     	ds	2
   368   00003F                     
   369                           ; 1 bytes @ 0x3E
   370 ;;
   371 ;;Main: autosize = 0, tempsize = 0, incstack = 0, save=0
   372 ;;
   373 ;; *************** function _main *****************
   374 ;; Defined at:
   375 ;;		line 26 in file "main.c"
   376 ;; Parameters:    Size  Location     Type
   377 ;;		None
   378 ;; Auto vars:     Size  Location     Type
   379 ;;		None
   380 ;; Return value:  Size  Location     Type
   381 ;;                  1    wreg      void 
   382 ;; Registers used:
   383 ;;		wreg, status,2, status,0, cstack
   384 ;; Tracked objects:
   385 ;;		On entry : 0/0
   386 ;;		On exit  : 0/0
   387 ;;		Unchanged: 0/0
   388 ;; Data sizes:     COMRAM   BANK0   BANK1   BANK2   BANK3   BANK4   BANK5   BANK6   BANK7   BANK8   BANK9  BANK10  BANK1
      +1  BANK12  BANK13  BANK14  BANK15
   389 ;;      Params:         0       0       0       0       0       0       0       0       0       0       0       0       
      +0       0       0       0       0
   390 ;;      Locals:         0       0       0       0       0       0       0       0       0       0       0       0       
      +0       0       0       0       0
   391 ;;      Temps:          0       0       0       0       0       0       0       0       0       0       0       0       
      +0       0       0       0       0
   392 ;;      Totals:         0       0       0       0       0       0       0       0       0       0       0       0       
      +0       0       0       0       0
   393 ;;Total ram usage:        0 bytes
   394 ;; Hardware stack levels required when called: 7
   395 ;; This function calls:
   396 ;;		_Inicializar
   397 ;;		_MaquinaDeEstados
   398 ;; This function is called by:
   399 ;;		Startup code after reset
   400 ;; This function uses a non-reentrant model
   401 ;;
   402                           
   403                           	psect	text0
   404   000CDE                     __ptext0:
   405                           	callstack 0
   406   000CDE                     _main:
   407                           	callstack 24
   408   000CDE                     
   409                           ;main.c: 28:     Inicializar( );
   410   000CDE  EC40  F006         	call	_Inicializar	;wreg free
   411   000CE2                     l1865:
   412                           
   413                           ;main.c: 31:     {;main.c: 32:         MaquinaDeEstados();
   414   000CE2  EC6A  F005         	call	_MaquinaDeEstados	;wreg free
   415   000CE6  EF71  F006         	goto	l1865
   416   000CEA  EF10  F000         	goto	start
   417   000CEE                     __end_of_main:
   418                           	callstack 0
   419                           
   420 ;; *************** function _MaquinaDeEstados *****************
   421 ;; Defined at:
   422 ;;		line 340 in file "AP_MDE.c"
   423 ;; Parameters:    Size  Location     Type
   424 ;;		None
   425 ;; Auto vars:     Size  Location     Type
   426 ;;		None
   427 ;; Return value:  Size  Location     Type
   428 ;;                  1    wreg      void 
   429 ;; Registers used:
   430 ;;		wreg, status,2, status,0, cstack
   431 ;; Tracked objects:
   432 ;;		On entry : 0/0
   433 ;;		On exit  : 0/0
   434 ;;		Unchanged: 0/0
   435 ;; Data sizes:     COMRAM   BANK0   BANK1   BANK2   BANK3   BANK4   BANK5   BANK6   BANK7   BANK8   BANK9  BANK10  BANK1
      +1  BANK12  BANK13  BANK14  BANK15
   436 ;;      Params:         0       0       0       0       0       0       0       0       0       0       0       0       
      +0       0       0       0       0
   437 ;;      Locals:         0       0       0       0       0       0       0       0       0       0       0       0       
      +0       0       0       0       0
   438 ;;      Temps:          0       0       0       0       0       0       0       0       0       0       0       0       
      +0       0       0       0       0
   439 ;;      Totals:         0       0       0       0       0       0       0       0       0       0       0       0       
      +0       0       0       0       0
   440 ;;Total ram usage:        0 bytes
   441 ;; Hardware stack levels used: 1
   442 ;; Hardware stack levels required when called: 6
   443 ;; This function calls:
   444 ;;		_INTENSIDAd
   445 ;;		_LED
   446 ;;		_MDE4
   447 ;;		_SWITCH
   448 ;; This function is called by:
   449 ;;		_main
   450 ;; This function uses a non-reentrant model
   451 ;;
   452                           
   453                           	psect	text1
   454   000AD4                     __ptext1:
   455                           	callstack 0
   456   000AD4                     _MaquinaDeEstados:
   457                           	callstack 24
   458   000AD4                     
   459                           ;AP_MDE.c: 342:     static int estados_LED = 0;;AP_MDE.c: 343:     static int estados_SW
      +                          ITCH = 0;;AP_MDE.c: 344:     static int estados_INTENSIDAd = 0;;AP_MDE.c: 345:     stati
      +                          c int estados_MDE4 = 0;;AP_MDE.c: 348:     estados_INTENSIDAd = INTENSIDAd(estados_INTEN
      +                          SIDAd);
   460   000AD4  C055  F037         	movff	MaquinaDeEstados@estados_INTENSIDAd,INTENSIDAd@Estado
   461   000AD8  C056  F038         	movff	MaquinaDeEstados@estados_INTENSIDAd+1,INTENSIDAd@Estado+1
   462   000ADC  ECD3  F001         	call	_INTENSIDAd	;wreg free
   463   000AE0  C037  F055         	movff	?_INTENSIDAd,MaquinaDeEstados@estados_INTENSIDAd
   464   000AE4  C038  F056         	movff	?_INTENSIDAd+1,MaquinaDeEstados@estados_INTENSIDAd+1
   465                           
   466                           ;AP_MDE.c: 349:     estados_LED = LED( estados_LED );
   467   000AE8  C059  F001         	movff	MaquinaDeEstados@estados_LED,LED@Estado
   468   000AEC  C05A  F002         	movff	MaquinaDeEstados@estados_LED+1,LED@Estado+1
   469   000AF0  EC7F  F004         	call	_LED	;wreg free
   470   000AF4  C001  F059         	movff	?_LED,MaquinaDeEstados@estados_LED
   471   000AF8  C002  F05A         	movff	?_LED+1,MaquinaDeEstados@estados_LED+1
   472                           
   473                           ;AP_MDE.c: 350:     estados_SWITCH = SWITCH( estados_SWITCH );
   474   000AFC  C057  F037         	movff	MaquinaDeEstados@estados_SWITCH,SWITCH@Estado
   475   000B00  C058  F038         	movff	MaquinaDeEstados@estados_SWITCH+1,SWITCH@Estado+1
   476   000B04  EC12  F000         	call	_SWITCH	;wreg free
   477   000B08  C037  F057         	movff	?_SWITCH,MaquinaDeEstados@estados_SWITCH
   478   000B0C  C038  F058         	movff	?_SWITCH+1,MaquinaDeEstados@estados_SWITCH+1
   479                           
   480                           ;AP_MDE.c: 351:     estados_MDE4 = MDE4( estados_MDE4 );
   481   000B10  C060  F03B         	movff	MaquinaDeEstados@estados_MDE4,MDE4@Estado
   482   000B14  C061  F03C         	movff	MaquinaDeEstados@estados_MDE4+1,MDE4@Estado+1
   483   000B18  EC65  F002         	call	_MDE4	;wreg free
   484   000B1C  C03B  F060         	movff	?_MDE4,MaquinaDeEstados@estados_MDE4
   485   000B20  C03C  F061         	movff	?_MDE4+1,MaquinaDeEstados@estados_MDE4+1
   486   000B24  0012               	return		;funcret
   487   000B26                     __end_of_MaquinaDeEstados:
   488                           	callstack 0
   489                           
   490 ;; *************** function _SWITCH *****************
   491 ;; Defined at:
   492 ;;		line 84 in file "AP_MDE.c"
   493 ;; Parameters:    Size  Location     Type
   494 ;;  Estado          2   54[COMRAM] int 
   495 ;; Auto vars:     Size  Location     Type
   496 ;;		None
   497 ;; Return value:  Size  Location     Type
   498 ;;                  2   54[COMRAM] int 
   499 ;; Registers used:
   500 ;;		wreg, status,2, status,0, cstack
   501 ;; Tracked objects:
   502 ;;		On entry : 0/0
   503 ;;		On exit  : 0/0
   504 ;;		Unchanged: 0/0
   505 ;; Data sizes:     COMRAM   BANK0   BANK1   BANK2   BANK3   BANK4   BANK5   BANK6   BANK7   BANK8   BANK9  BANK10  BANK1
      +1  BANK12  BANK13  BANK14  BANK15
   506 ;;      Params:         2       0       0       0       0       0       0       0       0       0       0       0       
      +0       0       0       0       0
   507 ;;      Locals:         0       0       0       0       0       0       0       0       0       0       0       0       
      +0       0       0       0       0
   508 ;;      Temps:          2       0       0       0       0       0       0       0       0       0       0       0       
      +0       0       0       0       0
   509 ;;      Totals:         4       0       0       0       0       0       0       0       0       0       0       0       
      +0       0       0       0       0
   510 ;;Total ram usage:        4 bytes
   511 ;; Hardware stack levels used: 1
   512 ;; Hardware stack levels required when called: 4
   513 ;; This function calls:
   514 ;;		_e_antirebote
   515 ;;		_f_intoff
   516 ;;		_f_inton
   517 ;;		_f_position
   518 ;;		_s_llave_off
   519 ;;		_s_llave_on
   520 ;;		_t_antirebote
   521 ;; This function is called by:
   522 ;;		_MaquinaDeEstados
   523 ;; This function uses a non-reentrant model
   524 ;;
   525                           
   526                           	psect	text2
   527   000024                     __ptext2:
   528                           	callstack 0
   529   000024                     _SWITCH:
   530                           	callstack 25
   531   000024                     
   532                           ;AP_MDE.c: 84: static int SWITCH ( int Estado );AP_MDE.c: 85: {;AP_MDE.c: 86:     switch
      +                           ( Estado )
   533   000024  EFD2  F000         	goto	l1731
   534   000028                     l1681:
   535                           
   536                           ;AP_MDE.c: 90:             confirmado_off = 1;
   537   000028  0E00               	movlw	0
   538   00002A  6E5C               	movwf	(_confirmado_off+1)^0,c
   539   00002C  0E01               	movlw	1
   540   00002E  6E5B               	movwf	_confirmado_off^0,c
   541                           
   542                           ;AP_MDE.c: 91:             confirmado_on = 0;
   543   000030  0E00               	movlw	0
   544   000032  6E4C               	movwf	(_confirmado_on+1)^0,c
   545   000034  0E00               	movlw	0
   546   000036  6E4B               	movwf	_confirmado_on^0,c
   547                           
   548                           ;AP_MDE.c: 94:             Estado = 1;
   549   000038  0E00               	movlw	0
   550   00003A  6E38               	movwf	(SWITCH@Estado+1)^0,c
   551   00003C  0E01               	movlw	1
   552   00003E  6E37               	movwf	SWITCH@Estado^0,c
   553                           
   554                           ;AP_MDE.c: 96:             break;
   555   000040  EFF4  F000         	goto	l199
   556   000044                     l1683:
   557                           
   558                           ;AP_MDE.c: 99:             if ( s_llave_on() )
   559   000044  EC0A  F006         	call	_s_llave_on	;wreg free
   560   000048  5001               	movf	?_s_llave_on^0,w,c
   561   00004A  1002               	iorwf	(?_s_llave_on+1)^0,w,c
   562   00004C  B4D8               	btfsc	status,2,c
   563   00004E  EF2B  F000         	goto	u971
   564   000052  EF2D  F000         	goto	u970
   565   000056                     u971:
   566   000056  EFF4  F000         	goto	l199
   567   00005A                     u970:
   568   00005A                     
   569                           ;AP_MDE.c: 100:             {;AP_MDE.c: 101:                 t_antirebote();
   570   00005A  EC5D  F006         	call	_t_antirebote	;wreg free
   571   00005E                     
   572                           ;AP_MDE.c: 103:                 Estado = 3;
   573   00005E  0E00               	movlw	0
   574   000060  6E38               	movwf	(SWITCH@Estado+1)^0,c
   575   000062  0E03               	movlw	3
   576   000064  6E37               	movwf	SWITCH@Estado^0,c
   577   000066  EFF4  F000         	goto	l199
   578   00006A                     l1689:
   579                           
   580                           ;AP_MDE.c: 109:             if ( s_llave_off() )
   581   00006A  EC34  F006         	call	_s_llave_off	;wreg free
   582   00006E  5001               	movf	?_s_llave_off^0,w,c
   583   000070  1002               	iorwf	(?_s_llave_off+1)^0,w,c
   584   000072  B4D8               	btfsc	status,2,c
   585   000074  EF3E  F000         	goto	u981
   586   000078  EF40  F000         	goto	u980
   587   00007C                     u981:
   588   00007C  EFF4  F000         	goto	l199
   589   000080                     u980:
   590   000080                     
   591                           ;AP_MDE.c: 110:             {;AP_MDE.c: 111:                 t_antirebote();
   592   000080  EC5D  F006         	call	_t_antirebote	;wreg free
   593   000084                     
   594                           ;AP_MDE.c: 112:                 Estado = 4;
   595   000084  0E00               	movlw	0
   596   000086  6E38               	movwf	(SWITCH@Estado+1)^0,c
   597   000088  0E04               	movlw	4
   598   00008A  6E37               	movwf	SWITCH@Estado^0,c
   599   00008C  EFF4  F000         	goto	l199
   600   000090                     l1695:
   601                           
   602                           ;AP_MDE.c: 118:             if ( e_antirebote() && s_llave_off() )
   603   000090  EC35  F005         	call	_e_antirebote	;wreg free
   604   000094  5033               	movf	?_e_antirebote^0,w,c
   605   000096  1034               	iorwf	(?_e_antirebote+1)^0,w,c
   606   000098  B4D8               	btfsc	status,2,c
   607   00009A  EF51  F000         	goto	u991
   608   00009E  EF53  F000         	goto	u990
   609   0000A2                     u991:
   610   0000A2  EF62  F000         	goto	l1701
   611   0000A6                     u990:
   612   0000A6  EC34  F006         	call	_s_llave_off	;wreg free
   613   0000AA  5001               	movf	?_s_llave_off^0,w,c
   614   0000AC  1002               	iorwf	(?_s_llave_off+1)^0,w,c
   615   0000AE  B4D8               	btfsc	status,2,c
   616   0000B0  EF5C  F000         	goto	u1001
   617   0000B4  EF5E  F000         	goto	u1000
   618   0000B8                     u1001:
   619   0000B8  EF62  F000         	goto	l1701
   620   0000BC                     u1000:
   621   0000BC                     
   622                           ;AP_MDE.c: 119:             {;AP_MDE.c: 121:                 Estado = 1;
   623   0000BC  0E00               	movlw	0
   624   0000BE  6E38               	movwf	(SWITCH@Estado+1)^0,c
   625   0000C0  0E01               	movlw	1
   626   0000C2  6E37               	movwf	SWITCH@Estado^0,c
   627   0000C4                     l1701:
   628                           
   629                           ;AP_MDE.c: 124:             if ( e_antirebote() && s_llave_on() )
   630   0000C4  EC35  F005         	call	_e_antirebote	;wreg free
   631   0000C8  5033               	movf	?_e_antirebote^0,w,c
   632   0000CA  1034               	iorwf	(?_e_antirebote+1)^0,w,c
   633   0000CC  B4D8               	btfsc	status,2,c
   634   0000CE  EF6B  F000         	goto	u1011
   635   0000D2  EF6D  F000         	goto	u1010
   636   0000D6                     u1011:
   637   0000D6  EFF4  F000         	goto	l199
   638   0000DA                     u1010:
   639   0000DA  EC0A  F006         	call	_s_llave_on	;wreg free
   640   0000DE  5001               	movf	?_s_llave_on^0,w,c
   641   0000E0  1002               	iorwf	(?_s_llave_on+1)^0,w,c
   642   0000E2  B4D8               	btfsc	status,2,c
   643   0000E4  EF76  F000         	goto	u1021
   644   0000E8  EF78  F000         	goto	u1020
   645   0000EC                     u1021:
   646   0000EC  EFF4  F000         	goto	l199
   647   0000F0                     u1020:
   648   0000F0                     
   649                           ;AP_MDE.c: 125:             {;AP_MDE.c: 126:                 confirmado_on = 1;
   650   0000F0  0E00               	movlw	0
   651   0000F2  6E4C               	movwf	(_confirmado_on+1)^0,c
   652   0000F4  0E01               	movlw	1
   653   0000F6  6E4B               	movwf	_confirmado_on^0,c
   654                           
   655                           ;AP_MDE.c: 127:                 confirmado_off = 0;
   656   0000F8  0E00               	movlw	0
   657   0000FA  6E5C               	movwf	(_confirmado_off+1)^0,c
   658   0000FC  0E00               	movlw	0
   659   0000FE  6E5B               	movwf	_confirmado_off^0,c
   660   000100                     
   661                           ;AP_MDE.c: 128:                 f_intoff();
   662   000100  EC8A  F006         	call	_f_intoff	;wreg free
   663                           
   664                           ;AP_MDE.c: 129:                 f_inton();
   665   000104  EC8D  F006         	call	_f_inton	;wreg free
   666   000108                     
   667                           ;AP_MDE.c: 131:                 Estado = 2;
   668   000108  0E00               	movlw	0
   669   00010A  6E38               	movwf	(SWITCH@Estado+1)^0,c
   670   00010C  0E02               	movlw	2
   671   00010E  6E37               	movwf	SWITCH@Estado^0,c
   672   000110  EFF4  F000         	goto	l199
   673   000114                     l1711:
   674                           
   675                           ;AP_MDE.c: 137:             if ( e_antirebote() && s_llave_on() )
   676   000114  EC35  F005         	call	_e_antirebote	;wreg free
   677   000118  5033               	movf	?_e_antirebote^0,w,c
   678   00011A  1034               	iorwf	(?_e_antirebote+1)^0,w,c
   679   00011C  B4D8               	btfsc	status,2,c
   680   00011E  EF93  F000         	goto	u1031
   681   000122  EF95  F000         	goto	u1030
   682   000126                     u1031:
   683   000126  EFA4  F000         	goto	l1717
   684   00012A                     u1030:
   685   00012A  EC0A  F006         	call	_s_llave_on	;wreg free
   686   00012E  5001               	movf	?_s_llave_on^0,w,c
   687   000130  1002               	iorwf	(?_s_llave_on+1)^0,w,c
   688   000132  B4D8               	btfsc	status,2,c
   689   000134  EF9E  F000         	goto	u1041
   690   000138  EFA0  F000         	goto	u1040
   691   00013C                     u1041:
   692   00013C  EFA4  F000         	goto	l1717
   693   000140                     u1040:
   694   000140                     
   695                           ;AP_MDE.c: 138:             {;AP_MDE.c: 140:                 Estado = 2;
   696   000140  0E00               	movlw	0
   697   000142  6E38               	movwf	(SWITCH@Estado+1)^0,c
   698   000144  0E02               	movlw	2
   699   000146  6E37               	movwf	SWITCH@Estado^0,c
   700   000148                     l1717:
   701                           
   702                           ;AP_MDE.c: 143:             if ( e_antirebote() && s_llave_off() )
   703   000148  EC35  F005         	call	_e_antirebote	;wreg free
   704   00014C  5033               	movf	?_e_antirebote^0,w,c
   705   00014E  1034               	iorwf	(?_e_antirebote+1)^0,w,c
   706   000150  B4D8               	btfsc	status,2,c
   707   000152  EFAD  F000         	goto	u1051
   708   000156  EFAF  F000         	goto	u1050
   709   00015A                     u1051:
   710   00015A  EFF4  F000         	goto	l199
   711   00015E                     u1050:
   712   00015E  EC34  F006         	call	_s_llave_off	;wreg free
   713   000162  5001               	movf	?_s_llave_off^0,w,c
   714   000164  1002               	iorwf	(?_s_llave_off+1)^0,w,c
   715   000166  B4D8               	btfsc	status,2,c
   716   000168  EFB8  F000         	goto	u1061
   717   00016C  EFBA  F000         	goto	u1060
   718   000170                     u1061:
   719   000170  EFF4  F000         	goto	l199
   720   000174                     u1060:
   721   000174                     
   722                           ;AP_MDE.c: 144:             {;AP_MDE.c: 145:                 confirmado_off = 1;
   723   000174  0E00               	movlw	0
   724   000176  6E5C               	movwf	(_confirmado_off+1)^0,c
   725   000178  0E01               	movlw	1
   726   00017A  6E5B               	movwf	_confirmado_off^0,c
   727                           
   728                           ;AP_MDE.c: 146:                 confirmado_on = 0;
   729   00017C  0E00               	movlw	0
   730   00017E  6E4C               	movwf	(_confirmado_on+1)^0,c
   731   000180  0E00               	movlw	0
   732   000182  6E4B               	movwf	_confirmado_on^0,c
   733   000184                     
   734                           ;AP_MDE.c: 147:                 f_intoff();
   735   000184  EC8A  F006         	call	_f_intoff	;wreg free
   736   000188                     
   737                           ;AP_MDE.c: 148:                 f_position();
   738   000188  EC87  F006         	call	_f_position	;wreg free
   739                           
   740                           ;AP_MDE.c: 150:                 Estado = 1;
   741   00018C  0E00               	movlw	0
   742   00018E  6E38               	movwf	(SWITCH@Estado+1)^0,c
   743   000190  0E01               	movlw	1
   744   000192  6E37               	movwf	SWITCH@Estado^0,c
   745   000194  EFF4  F000         	goto	l199
   746   000198                     l1727:
   747                           
   748                           ;AP_MDE.c: 157:             Estado = 0 ;
   749   000198  0E00               	movlw	0
   750   00019A  6E38               	movwf	(SWITCH@Estado+1)^0,c
   751   00019C  0E00               	movlw	0
   752   00019E  6E37               	movwf	SWITCH@Estado^0,c
   753                           
   754                           ;AP_MDE.c: 158:             break;
   755   0001A0  EFF4  F000         	goto	l199
   756   0001A4                     l1731:
   757   0001A4  C037  F039         	movff	SWITCH@Estado,??_SWITCH
   758   0001A8  C038  F03A         	movff	SWITCH@Estado+1,??_SWITCH+1
   759                           
   760                           ; Switch on 2 bytes has been partitioned into a top level switch of size 1, and 1 sub-sw
      +                          itches
   761                           ; Switch size 1, requested type "simple"
   762                           ; Number of cases is 1, Range of values is 0 to 0
   763                           ; switch strategies available:
   764                           ; Name         Instructions Cycles
   765                           ; simple_byte            4     3 (average)
   766                           ;	Chosen strategy is simple_byte
   767   0001AC  503A               	movf	(??_SWITCH+1)^0,w,c
   768   0001AE  0A00               	xorlw	0	; case 0
   769   0001B0  B4D8               	btfsc	status,2,c
   770   0001B2  EFDD  F000         	goto	l1883
   771   0001B6  EFCC  F000         	goto	l1727
   772   0001BA                     l1883:
   773                           
   774                           ; Switch size 1, requested type "simple"
   775                           ; Number of cases is 5, Range of values is 0 to 4
   776                           ; switch strategies available:
   777                           ; Name         Instructions Cycles
   778                           ; simple_byte           16     9 (average)
   779                           ;	Chosen strategy is simple_byte
   780   0001BA  5039               	movf	??_SWITCH^0,w,c
   781   0001BC  0A00               	xorlw	0	; case 0
   782   0001BE  B4D8               	btfsc	status,2,c
   783   0001C0  EF14  F000         	goto	l1681
   784   0001C4  0A01               	xorlw	1	; case 1
   785   0001C6  B4D8               	btfsc	status,2,c
   786   0001C8  EF22  F000         	goto	l1683
   787   0001CC  0A03               	xorlw	3	; case 2
   788   0001CE  B4D8               	btfsc	status,2,c
   789   0001D0  EF35  F000         	goto	l1689
   790   0001D4  0A01               	xorlw	1	; case 3
   791   0001D6  B4D8               	btfsc	status,2,c
   792   0001D8  EF48  F000         	goto	l1695
   793   0001DC  0A07               	xorlw	7	; case 4
   794   0001DE  B4D8               	btfsc	status,2,c
   795   0001E0  EF8A  F000         	goto	l1711
   796   0001E4  EFCC  F000         	goto	l1727
   797   0001E8                     l199:
   798                           
   799                           ;AP_MDE.c: 161:     return Estado ;
   800   0001E8  C037  F037         	movff	SWITCH@Estado,?_SWITCH
   801   0001EC  C038  F038         	movff	SWITCH@Estado+1,?_SWITCH+1
   802   0001F0  0012               	return		;funcret
   803   0001F2                     __end_of_SWITCH:
   804                           	callstack 0
   805                           
   806 ;; *************** function _s_llave_on *****************
   807 ;; Defined at:
   808 ;;		line 63 in file "AP_FuncionesMDE.c"
   809 ;; Parameters:    Size  Location     Type
   810 ;;		None
   811 ;; Auto vars:     Size  Location     Type
   812 ;;		None
   813 ;; Return value:  Size  Location     Type
   814 ;;                  2    0[COMRAM] int 
   815 ;; Registers used:
   816 ;;		wreg, status,2
   817 ;; Tracked objects:
   818 ;;		On entry : 0/0
   819 ;;		On exit  : 0/0
   820 ;;		Unchanged: 0/0
   821 ;; Data sizes:     COMRAM   BANK0   BANK1   BANK2   BANK3   BANK4   BANK5   BANK6   BANK7   BANK8   BANK9  BANK10  BANK1
      +1  BANK12  BANK13  BANK14  BANK15
   822 ;;      Params:         2       0       0       0       0       0       0       0       0       0       0       0       
      +0       0       0       0       0
   823 ;;      Locals:         0       0       0       0       0       0       0       0       0       0       0       0       
      +0       0       0       0       0
   824 ;;      Temps:          1       0       0       0       0       0       0       0       0       0       0       0       
      +0       0       0       0       0
   825 ;;      Totals:         3       0       0       0       0       0       0       0       0       0       0       0       
      +0       0       0       0       0
   826 ;;Total ram usage:        3 bytes
   827 ;; Hardware stack levels used: 1
   828 ;; Hardware stack levels required when called: 2
   829 ;; This function calls:
   830 ;;		Nothing
   831 ;; This function is called by:
   832 ;;		_SWITCH
   833 ;; This function uses a non-reentrant model
   834 ;;
   835                           
   836                           	psect	text3
   837   000C14                     __ptext3:
   838                           	callstack 0
   839   000C14                     _s_llave_on:
   840                           	callstack 26
   841   000C14                     
   842                           ;AP_FuncionesMDE.c: 65:     return (PORTCbits.RC0);
   843   000C14  B082               	btfsc	130,0,c	;volatile
   844   000C16  EF0F  F006         	goto	u861
   845   000C1A  EF13  F006         	goto	u860
   846   000C1E                     u861:
   847   000C1E  6A03               	clrf	??_s_llave_on^0,c
   848   000C20  2A03               	incf	??_s_llave_on^0,f,c
   849   000C22  EF14  F006         	goto	u868
   850   000C26                     u860:
   851   000C26  6A03               	clrf	??_s_llave_on^0,c
   852   000C28                     u868:
   853   000C28  5003               	movf	??_s_llave_on^0,w,c
   854   000C2A  6E01               	movwf	?_s_llave_on^0,c
   855   000C2C  6A02               	clrf	(?_s_llave_on+1)^0,c
   856   000C2E  0012               	return		;funcret
   857   000C30                     __end_of_s_llave_on:
   858                           	callstack 0
   859                           
   860 ;; *************** function _s_llave_off *****************
   861 ;; Defined at:
   862 ;;		line 79 in file "AP_FuncionesMDE.c"
   863 ;; Parameters:    Size  Location     Type
   864 ;;		None
   865 ;; Auto vars:     Size  Location     Type
   866 ;;		None
   867 ;; Return value:  Size  Location     Type
   868 ;;                  2    0[COMRAM] int 
   869 ;; Registers used:
   870 ;;		wreg, status,2
   871 ;; Tracked objects:
   872 ;;		On entry : 0/0
   873 ;;		On exit  : 0/0
   874 ;;		Unchanged: 0/0
   875 ;; Data sizes:     COMRAM   BANK0   BANK1   BANK2   BANK3   BANK4   BANK5   BANK6   BANK7   BANK8   BANK9  BANK10  BANK1
      +1  BANK12  BANK13  BANK14  BANK15
   876 ;;      Params:         2       0       0       0       0       0       0       0       0       0       0       0       
      +0       0       0       0       0
   877 ;;      Locals:         0       0       0       0       0       0       0       0       0       0       0       0       
      +0       0       0       0       0
   878 ;;      Temps:          0       0       0       0       0       0       0       0       0       0       0       0       
      +0       0       0       0       0
   879 ;;      Totals:         2       0       0       0       0       0       0       0       0       0       0       0       
      +0       0       0       0       0
   880 ;;Total ram usage:        2 bytes
   881 ;; Hardware stack levels used: 1
   882 ;; Hardware stack levels required when called: 2
   883 ;; This function calls:
   884 ;;		Nothing
   885 ;; This function is called by:
   886 ;;		_SWITCH
   887 ;; This function uses a non-reentrant model
   888 ;;
   889                           
   890                           	psect	text4
   891   000C68                     __ptext4:
   892                           	callstack 0
   893   000C68                     _s_llave_off:
   894                           	callstack 26
   895   000C68                     
   896                           ;AP_FuncionesMDE.c: 81:     return !(PORTCbits.RC0);
   897   000C68  A082               	btfss	130,0,c	;volatile
   898   000C6A  EF39  F006         	goto	u871
   899   000C6E  EF3C  F006         	goto	u870
   900   000C72                     u871:
   901   000C72  0E01               	movlw	1
   902   000C74  EF3D  F006         	goto	u880
   903   000C78                     u870:
   904   000C78  0E00               	movlw	0
   905   000C7A                     u880:
   906   000C7A  6E01               	movwf	?_s_llave_off^0,c
   907   000C7C  6A02               	clrf	(?_s_llave_off+1)^0,c
   908   000C7E  0012               	return		;funcret
   909   000C80                     __end_of_s_llave_off:
   910                           	callstack 0
   911                           
   912 ;; *************** function _f_position *****************
   913 ;; Defined at:
   914 ;;		line 192 in file "AP_FuncionesMDE.c"
   915 ;; Parameters:    Size  Location     Type
   916 ;;		None
   917 ;; Auto vars:     Size  Location     Type
   918 ;;		None
   919 ;; Return value:  Size  Location     Type
   920 ;;                  1    wreg      void 
   921 ;; Registers used:
   922 ;;		wreg, status,2
   923 ;; Tracked objects:
   924 ;;		On entry : 0/0
   925 ;;		On exit  : 0/0
   926 ;;		Unchanged: 0/0
   927 ;; Data sizes:     COMRAM   BANK0   BANK1   BANK2   BANK3   BANK4   BANK5   BANK6   BANK7   BANK8   BANK9  BANK10  BANK1
      +1  BANK12  BANK13  BANK14  BANK15
   928 ;;      Params:         0       0       0       0       0       0       0       0       0       0       0       0       
      +0       0       0       0       0
   929 ;;      Locals:         0       0       0       0       0       0       0       0       0       0       0       0       
      +0       0       0       0       0
   930 ;;      Temps:          0       0       0       0       0       0       0       0       0       0       0       0       
      +0       0       0       0       0
   931 ;;      Totals:         0       0       0       0       0       0       0       0       0       0       0       0       
      +0       0       0       0       0
   932 ;;Total ram usage:        0 bytes
   933 ;; Hardware stack levels used: 1
   934 ;; Hardware stack levels required when called: 2
   935 ;; This function calls:
   936 ;;		Nothing
   937 ;; This function is called by:
   938 ;;		_SWITCH
   939 ;; This function uses a non-reentrant model
   940 ;;
   941                           
   942                           	psect	text5
   943   000D0E                     __ptext5:
   944                           	callstack 0
   945   000D0E                     _f_position:
   946                           	callstack 26
   947   000D0E                     
   948                           ;AP_FuncionesMDE.c: 193: led_position = 0b00000001;
   949   000D0E  0E01               	movlw	1
   950   000D10  6E5D               	movwf	_led_position^0,c
   951   000D12  0012               	return		;funcret
   952   000D14                     __end_of_f_position:
   953                           	callstack 0
   954                           
   955 ;; *************** function _f_inton *****************
   956 ;; Defined at:
   957 ;;		line 101 in file "AP_FuncionesMDE.c"
   958 ;; Parameters:    Size  Location     Type
   959 ;;		None
   960 ;; Auto vars:     Size  Location     Type
   961 ;;		None
   962 ;; Return value:  Size  Location     Type
   963 ;;                  1    wreg      void 
   964 ;; Registers used:
   965 ;;		None
   966 ;; Tracked objects:
   967 ;;		On entry : 0/0
   968 ;;		On exit  : 0/0
   969 ;;		Unchanged: 0/0
   970 ;; Data sizes:     COMRAM   BANK0   BANK1   BANK2   BANK3   BANK4   BANK5   BANK6   BANK7   BANK8   BANK9  BANK10  BANK1
      +1  BANK12  BANK13  BANK14  BANK15
   971 ;;      Params:         0       0       0       0       0       0       0       0       0       0       0       0       
      +0       0       0       0       0
   972 ;;      Locals:         0       0       0       0       0       0       0       0       0       0       0       0       
      +0       0       0       0       0
   973 ;;      Temps:          0       0       0       0       0       0       0       0       0       0       0       0       
      +0       0       0       0       0
   974 ;;      Totals:         0       0       0       0       0       0       0       0       0       0       0       0       
      +0       0       0       0       0
   975 ;;Total ram usage:        0 bytes
   976 ;; Hardware stack levels used: 1
   977 ;; Hardware stack levels required when called: 2
   978 ;; This function calls:
   979 ;;		Nothing
   980 ;; This function is called by:
   981 ;;		_SWITCH
   982 ;; This function uses a non-reentrant model
   983 ;;
   984                           
   985                           	psect	text6
   986   000D1A                     __ptext6:
   987                           	callstack 0
   988   000D1A                     _f_inton:
   989                           	callstack 26
   990   000D1A                     
   991                           ;AP_FuncionesMDE.c: 102:     LATBbits.LB0=1;
   992   000D1A  808A               	bsf	138,0,c	;volatile
   993   000D1C  0012               	return		;funcret
   994   000D1E                     __end_of_f_inton:
   995                           	callstack 0
   996                           
   997 ;; *************** function _f_intoff *****************
   998 ;; Defined at:
   999 ;;		line 105 in file "AP_FuncionesMDE.c"
  1000 ;; Parameters:    Size  Location     Type
  1001 ;;		None
  1002 ;; Auto vars:     Size  Location     Type
  1003 ;;		None
  1004 ;; Return value:  Size  Location     Type
  1005 ;;                  1    wreg      void 
  1006 ;; Registers used:
  1007 ;;		wreg, status,2
  1008 ;; Tracked objects:
  1009 ;;		On entry : 0/0
  1010 ;;		On exit  : 0/0
  1011 ;;		Unchanged: 0/0
  1012 ;; Data sizes:     COMRAM   BANK0   BANK1   BANK2   BANK3   BANK4   BANK5   BANK6   BANK7   BANK8   BANK9  BANK10  BANK1
      +1  BANK12  BANK13  BANK14  BANK15
  1013 ;;      Params:         0       0       0       0       0       0       0       0       0       0       0       0       
      +0       0       0       0       0
  1014 ;;      Locals:         0       0       0       0       0       0       0       0       0       0       0       0       
      +0       0       0       0       0
  1015 ;;      Temps:          0       0       0       0       0       0       0       0       0       0       0       0       
      +0       0       0       0       0
  1016 ;;      Totals:         0       0       0       0       0       0       0       0       0       0       0       0       
      +0       0       0       0       0
  1017 ;;Total ram usage:        0 bytes
  1018 ;; Hardware stack levels used: 1
  1019 ;; Hardware stack levels required when called: 2
  1020 ;; This function calls:
  1021 ;;		Nothing
  1022 ;; This function is called by:
  1023 ;;		_SWITCH
  1024 ;; This function uses a non-reentrant model
  1025 ;;
  1026                           
  1027                           	psect	text7
  1028   000D14                     __ptext7:
  1029                           	callstack 0
  1030   000D14                     _f_intoff:
  1031                           	callstack 26
  1032   000D14                     
  1033                           ;AP_FuncionesMDE.c: 107:     LATB=0;
  1034   000D14  0E00               	movlw	0
  1035   000D16  6E8A               	movwf	138,c	;volatile
  1036   000D18  0012               	return		;funcret
  1037   000D1A                     __end_of_f_intoff:
  1038                           	callstack 0
  1039                           
  1040 ;; *************** function _MDE4 *****************
  1041 ;; Defined at:
  1042 ;;		line 262 in file "AP_MDE.c"
  1043 ;; Parameters:    Size  Location     Type
  1044 ;;  Estado          2   58[COMRAM] int 
  1045 ;; Auto vars:     Size  Location     Type
  1046 ;;		None
  1047 ;; Return value:  Size  Location     Type
  1048 ;;                  2   58[COMRAM] int 
  1049 ;; Registers used:
  1050 ;;		wreg, status,2, status,0, cstack
  1051 ;; Tracked objects:
  1052 ;;		On entry : 0/0
  1053 ;;		On exit  : 0/0
  1054 ;;		Unchanged: 0/0
  1055 ;; Data sizes:     COMRAM   BANK0   BANK1   BANK2   BANK3   BANK4   BANK5   BANK6   BANK7   BANK8   BANK9  BANK10  BANK1
      +1  BANK12  BANK13  BANK14  BANK15
  1056 ;;      Params:         2       0       0       0       0       0       0       0       0       0       0       0       
      +0       0       0       0       0
  1057 ;;      Locals:         0       0       0       0       0       0       0       0       0       0       0       0       
      +0       0       0       0       0
  1058 ;;      Temps:          2       0       0       0       0       0       0       0       0       0       0       0       
      +0       0       0       0       0
  1059 ;;      Totals:         4       0       0       0       0       0       0       0       0       0       0       0       
      +0       0       0       0       0
  1060 ;;Total ram usage:        4 bytes
  1061 ;; Hardware stack levels used: 1
  1062 ;; Hardware stack levels required when called: 5
  1063 ;; This function calls:
  1064 ;;		_e_noSimular
  1065 ;;		_e_simular
  1066 ;;		_f_apagar
  1067 ;;		_f_encender
  1068 ;;		_f_noSimula
  1069 ;;		_t_noSimular
  1070 ;;		_t_simular
  1071 ;; This function is called by:
  1072 ;;		_MaquinaDeEstados
  1073 ;; This function uses a non-reentrant model
  1074 ;;
  1075                           
  1076                           	psect	text8
  1077   0004CA                     __ptext8:
  1078                           	callstack 0
  1079   0004CA                     _MDE4:
  1080                           	callstack 24
  1081   0004CA                     
  1082                           ;AP_MDE.c: 262: static int MDE4 ( int Estado );AP_MDE.c: 263: {;AP_MDE.c: 265:     switc
      +                          h ( Estado )
  1083   0004CA  EFD0  F002         	goto	l1845
  1084   0004CE                     l1811:
  1085                           
  1086                           ;AP_MDE.c: 269:             simulacion = 0;
  1087   0004CE  0E00               	movlw	0
  1088   0004D0  6E48               	movwf	(_simulacion+1)^0,c
  1089   0004D2  0E00               	movlw	0
  1090   0004D4  6E47               	movwf	_simulacion^0,c
  1091                           
  1092                           ;AP_MDE.c: 271:             Estado = 1;
  1093   0004D6  0E00               	movlw	0
  1094   0004D8  6E3C               	movwf	(MDE4@Estado+1)^0,c
  1095   0004DA  0E01               	movlw	1
  1096   0004DC  6E3B               	movwf	MDE4@Estado^0,c
  1097                           
  1098                           ;AP_MDE.c: 273:             break;
  1099   0004DE  EFEE  F002         	goto	l243
  1100   0004E2                     l1813:
  1101                           
  1102                           ;AP_MDE.c: 276:             if ( simulacion == 0 && confirmado_on == 1 )
  1103   0004E2  5047               	movf	_simulacion^0,w,c
  1104   0004E4  1048               	iorwf	(_simulacion+1)^0,w,c
  1105   0004E6  A4D8               	btfss	status,2,c
  1106   0004E8  EF78  F002         	goto	u1161
  1107   0004EC  EF7A  F002         	goto	u1160
  1108   0004F0                     u1161:
  1109   0004F0  EF87  F002         	goto	l1819
  1110   0004F4                     u1160:
  1111   0004F4  044B               	decf	_confirmado_on^0,w,c
  1112   0004F6  104C               	iorwf	(_confirmado_on+1)^0,w,c
  1113   0004F8  A4D8               	btfss	status,2,c
  1114   0004FA  EF81  F002         	goto	u1171
  1115   0004FE  EF83  F002         	goto	u1170
  1116   000502                     u1171:
  1117   000502  EF87  F002         	goto	l1819
  1118   000506                     u1170:
  1119   000506                     
  1120                           ;AP_MDE.c: 277:             {;AP_MDE.c: 279:                 Estado = 1;
  1121   000506  0E00               	movlw	0
  1122   000508  6E3C               	movwf	(MDE4@Estado+1)^0,c
  1123   00050A  0E01               	movlw	1
  1124   00050C  6E3B               	movwf	MDE4@Estado^0,c
  1125   00050E                     l1819:
  1126                           
  1127                           ;AP_MDE.c: 282:             if ( confirmado_off == 1 )
  1128   00050E  045B               	decf	_confirmado_off^0,w,c
  1129   000510  105C               	iorwf	(_confirmado_off+1)^0,w,c
  1130   000512  A4D8               	btfss	status,2,c
  1131   000514  EF8E  F002         	goto	u1181
  1132   000518  EF90  F002         	goto	u1180
  1133   00051C                     u1181:
  1134   00051C  EFEE  F002         	goto	l243
  1135   000520                     u1180:
  1136   000520                     
  1137                           ;AP_MDE.c: 283:             {;AP_MDE.c: 284:                 f_encender();
  1138   000520  EC8F  F006         	call	_f_encender	;wreg free
  1139                           
  1140                           ;AP_MDE.c: 285:                 t_simular();
  1141   000524  EC4B  F006         	call	_t_simular	;wreg free
  1142   000528                     
  1143                           ;AP_MDE.c: 286:                 simulacion = 1;
  1144   000528  0E00               	movlw	0
  1145   00052A  6E48               	movwf	(_simulacion+1)^0,c
  1146   00052C  0E01               	movlw	1
  1147   00052E  6E47               	movwf	_simulacion^0,c
  1148   000530                     
  1149                           ;AP_MDE.c: 288:                 Estado = 3;
  1150   000530  0E00               	movlw	0
  1151   000532  6E3C               	movwf	(MDE4@Estado+1)^0,c
  1152   000534  0E03               	movlw	3
  1153   000536  6E3B               	movwf	MDE4@Estado^0,c
  1154   000538  EFEE  F002         	goto	l243
  1155   00053C                     l1827:
  1156                           
  1157                           ;AP_MDE.c: 294:             if ( e_noSimular() )
  1158   00053C  ECCE  F003         	call	_e_noSimular	;wreg free
  1159   000540  5033               	movf	?_e_noSimular^0,w,c
  1160   000542  1034               	iorwf	(?_e_noSimular+1)^0,w,c
  1161   000544  B4D8               	btfsc	status,2,c
  1162   000546  EFA7  F002         	goto	u1191
  1163   00054A  EFA9  F002         	goto	u1190
  1164   00054E                     u1191:
  1165   00054E  EFEE  F002         	goto	l243
  1166   000552                     u1190:
  1167   000552                     
  1168                           ;AP_MDE.c: 295:             {;AP_MDE.c: 298:                 f_noSimula();
  1169   000552  EC93  F006         	call	_f_noSimula	;wreg free
  1170   000556                     
  1171                           ;AP_MDE.c: 299:                 simulacion = 0;
  1172   000556  0E00               	movlw	0
  1173   000558  6E48               	movwf	(_simulacion+1)^0,c
  1174   00055A  0E00               	movlw	0
  1175   00055C  6E47               	movwf	_simulacion^0,c
  1176   00055E                     
  1177                           ;AP_MDE.c: 301:                 Estado = 1;
  1178   00055E  0E00               	movlw	0
  1179   000560  6E3C               	movwf	(MDE4@Estado+1)^0,c
  1180   000562  0E01               	movlw	1
  1181   000564  6E3B               	movwf	MDE4@Estado^0,c
  1182   000566  EFEE  F002         	goto	l243
  1183   00056A                     l1835:
  1184                           
  1185                           ;AP_MDE.c: 307:             if ( e_simular() )
  1186   00056A  EC75  F003         	call	_e_simular	;wreg free
  1187   00056E  5033               	movf	?_e_simular^0,w,c
  1188   000570  1034               	iorwf	(?_e_simular+1)^0,w,c
  1189   000572  B4D8               	btfsc	status,2,c
  1190   000574  EFBE  F002         	goto	u1201
  1191   000578  EFC0  F002         	goto	u1200
  1192   00057C                     u1201:
  1193   00057C  EFEE  F002         	goto	l243
  1194   000580                     u1200:
  1195   000580                     
  1196                           ;AP_MDE.c: 308:             {;AP_MDE.c: 309:                 f_apagar();
  1197   000580  EC91  F006         	call	_f_apagar	;wreg free
  1198                           
  1199                           ;AP_MDE.c: 310:                 t_noSimular();
  1200   000584  EC54  F006         	call	_t_noSimular	;wreg free
  1201   000588                     
  1202                           ;AP_MDE.c: 312:                 Estado = 2;
  1203   000588  0E00               	movlw	0
  1204   00058A  6E3C               	movwf	(MDE4@Estado+1)^0,c
  1205   00058C  0E02               	movlw	2
  1206   00058E  6E3B               	movwf	MDE4@Estado^0,c
  1207   000590  EFEE  F002         	goto	l243
  1208   000594                     l1841:
  1209                           
  1210                           ;AP_MDE.c: 318:             Estado = 0 ;
  1211   000594  0E00               	movlw	0
  1212   000596  6E3C               	movwf	(MDE4@Estado+1)^0,c
  1213   000598  0E00               	movlw	0
  1214   00059A  6E3B               	movwf	MDE4@Estado^0,c
  1215                           
  1216                           ;AP_MDE.c: 319:             break;
  1217   00059C  EFEE  F002         	goto	l243
  1218   0005A0                     l1845:
  1219   0005A0  C03B  F03D         	movff	MDE4@Estado,??_MDE4
  1220   0005A4  C03C  F03E         	movff	MDE4@Estado+1,??_MDE4+1
  1221                           
  1222                           ; Switch on 2 bytes has been partitioned into a top level switch of size 1, and 1 sub-sw
      +                          itches
  1223                           ; Switch size 1, requested type "simple"
  1224                           ; Number of cases is 1, Range of values is 0 to 0
  1225                           ; switch strategies available:
  1226                           ; Name         Instructions Cycles
  1227                           ; simple_byte            4     3 (average)
  1228                           ;	Chosen strategy is simple_byte
  1229   0005A8  503E               	movf	(??_MDE4+1)^0,w,c
  1230   0005AA  0A00               	xorlw	0	; case 0
  1231   0005AC  B4D8               	btfsc	status,2,c
  1232   0005AE  EFDB  F002         	goto	l1885
  1233   0005B2  EFCA  F002         	goto	l1841
  1234   0005B6                     l1885:
  1235                           
  1236                           ; Switch size 1, requested type "simple"
  1237                           ; Number of cases is 4, Range of values is 0 to 3
  1238                           ; switch strategies available:
  1239                           ; Name         Instructions Cycles
  1240                           ; simple_byte           13     7 (average)
  1241                           ;	Chosen strategy is simple_byte
  1242   0005B6  503D               	movf	??_MDE4^0,w,c
  1243   0005B8  0A00               	xorlw	0	; case 0
  1244   0005BA  B4D8               	btfsc	status,2,c
  1245   0005BC  EF67  F002         	goto	l1811
  1246   0005C0  0A01               	xorlw	1	; case 1
  1247   0005C2  B4D8               	btfsc	status,2,c
  1248   0005C4  EF71  F002         	goto	l1813
  1249   0005C8  0A03               	xorlw	3	; case 2
  1250   0005CA  B4D8               	btfsc	status,2,c
  1251   0005CC  EF9E  F002         	goto	l1827
  1252   0005D0  0A01               	xorlw	1	; case 3
  1253   0005D2  B4D8               	btfsc	status,2,c
  1254   0005D4  EFB5  F002         	goto	l1835
  1255   0005D8  EFCA  F002         	goto	l1841
  1256   0005DC                     l243:
  1257                           
  1258                           ;AP_MDE.c: 322:     return Estado ;
  1259   0005DC  C03B  F03B         	movff	MDE4@Estado,?_MDE4
  1260   0005E0  C03C  F03C         	movff	MDE4@Estado+1,?_MDE4+1
  1261   0005E4  0012               	return		;funcret
  1262   0005E6                     __end_of_MDE4:
  1263                           	callstack 0
  1264                           
  1265 ;; *************** function _t_simular *****************
  1266 ;; Defined at:
  1267 ;;		line 260 in file "AP_FuncionesMDE.c"
  1268 ;; Parameters:    Size  Location     Type
  1269 ;;		None
  1270 ;; Auto vars:     Size  Location     Type
  1271 ;;		None
  1272 ;; Return value:  Size  Location     Type
  1273 ;;                  1    wreg      void 
  1274 ;; Registers used:
  1275 ;;		None
  1276 ;; Tracked objects:
  1277 ;;		On entry : 0/0
  1278 ;;		On exit  : 0/0
  1279 ;;		Unchanged: 0/0
  1280 ;; Data sizes:     COMRAM   BANK0   BANK1   BANK2   BANK3   BANK4   BANK5   BANK6   BANK7   BANK8   BANK9  BANK10  BANK1
      +1  BANK12  BANK13  BANK14  BANK15
  1281 ;;      Params:         0       0       0       0       0       0       0       0       0       0       0       0       
      +0       0       0       0       0
  1282 ;;      Locals:         0       0       0       0       0       0       0       0       0       0       0       0       
      +0       0       0       0       0
  1283 ;;      Temps:          0       0       0       0       0       0       0       0       0       0       0       0       
      +0       0       0       0       0
  1284 ;;      Totals:         0       0       0       0       0       0       0       0       0       0       0       0       
      +0       0       0       0       0
  1285 ;;Total ram usage:        0 bytes
  1286 ;; Hardware stack levels used: 1
  1287 ;; Hardware stack levels required when called: 2
  1288 ;; This function calls:
  1289 ;;		Nothing
  1290 ;; This function is called by:
  1291 ;;		_MDE4
  1292 ;; This function uses a non-reentrant model
  1293 ;;
  1294                           
  1295                           	psect	text9
  1296   000C96                     __ptext9:
  1297                           	callstack 0
  1298   000C96                     _t_simular:
  1299                           	callstack 26
  1300   000C96                     
  1301                           ;AP_FuncionesMDE.c: 262:     t_antirebote_ini = cuenta_interrup;
  1302   000C96  C043  F03F         	movff	_cuenta_interrup,_t_antirebote_ini
  1303   000C9A  C044  F040         	movff	_cuenta_interrup+1,_t_antirebote_ini+1
  1304   000C9E  C045  F041         	movff	_cuenta_interrup+2,_t_antirebote_ini+2
  1305   000CA2  C046  F042         	movff	_cuenta_interrup+3,_t_antirebote_ini+3
  1306   000CA6  0012               	return		;funcret
  1307   000CA8                     __end_of_t_simular:
  1308                           	callstack 0
  1309                           
  1310 ;; *************** function _t_noSimular *****************
  1311 ;; Defined at:
  1312 ;;		line 254 in file "AP_FuncionesMDE.c"
  1313 ;; Parameters:    Size  Location     Type
  1314 ;;		None
  1315 ;; Auto vars:     Size  Location     Type
  1316 ;;		None
  1317 ;; Return value:  Size  Location     Type
  1318 ;;                  1    wreg      void 
  1319 ;; Registers used:
  1320 ;;		None
  1321 ;; Tracked objects:
  1322 ;;		On entry : 0/0
  1323 ;;		On exit  : 0/0
  1324 ;;		Unchanged: 0/0
  1325 ;; Data sizes:     COMRAM   BANK0   BANK1   BANK2   BANK3   BANK4   BANK5   BANK6   BANK7   BANK8   BANK9  BANK10  BANK1
      +1  BANK12  BANK13  BANK14  BANK15
  1326 ;;      Params:         0       0       0       0       0       0       0       0       0       0       0       0       
      +0       0       0       0       0
  1327 ;;      Locals:         0       0       0       0       0       0       0       0       0       0       0       0       
      +0       0       0       0       0
  1328 ;;      Temps:          0       0       0       0       0       0       0       0       0       0       0       0       
      +0       0       0       0       0
  1329 ;;      Totals:         0       0       0       0       0       0       0       0       0       0       0       0       
      +0       0       0       0       0
  1330 ;;Total ram usage:        0 bytes
  1331 ;; Hardware stack levels used: 1
  1332 ;; Hardware stack levels required when called: 2
  1333 ;; This function calls:
  1334 ;;		Nothing
  1335 ;; This function is called by:
  1336 ;;		_MDE4
  1337 ;; This function uses a non-reentrant model
  1338 ;;
  1339                           
  1340                           	psect	text10
  1341   000CA8                     __ptext10:
  1342                           	callstack 0
  1343   000CA8                     _t_noSimular:
  1344                           	callstack 26
  1345   000CA8                     
  1346                           ;AP_FuncionesMDE.c: 256:     t_antirebote_ini = cuenta_interrup;
  1347   000CA8  C043  F03F         	movff	_cuenta_interrup,_t_antirebote_ini
  1348   000CAC  C044  F040         	movff	_cuenta_interrup+1,_t_antirebote_ini+1
  1349   000CB0  C045  F041         	movff	_cuenta_interrup+2,_t_antirebote_ini+2
  1350   000CB4  C046  F042         	movff	_cuenta_interrup+3,_t_antirebote_ini+3
  1351   000CB8  0012               	return		;funcret
  1352   000CBA                     __end_of_t_noSimular:
  1353                           	callstack 0
  1354                           
  1355 ;; *************** function _f_noSimula *****************
  1356 ;; Defined at:
  1357 ;;		line 232 in file "AP_FuncionesMDE.c"
  1358 ;; Parameters:    Size  Location     Type
  1359 ;;		None
  1360 ;; Auto vars:     Size  Location     Type
  1361 ;;		None
  1362 ;; Return value:  Size  Location     Type
  1363 ;;                  1    wreg      void 
  1364 ;; Registers used:
  1365 ;;		None
  1366 ;; Tracked objects:
  1367 ;;		On entry : 0/0
  1368 ;;		On exit  : 0/0
  1369 ;;		Unchanged: 0/0
  1370 ;; Data sizes:     COMRAM   BANK0   BANK1   BANK2   BANK3   BANK4   BANK5   BANK6   BANK7   BANK8   BANK9  BANK10  BANK1
      +1  BANK12  BANK13  BANK14  BANK15
  1371 ;;      Params:         0       0       0       0       0       0       0       0       0       0       0       0       
      +0       0       0       0       0
  1372 ;;      Locals:         0       0       0       0       0       0       0       0       0       0       0       0       
      +0       0       0       0       0
  1373 ;;      Temps:          0       0       0       0       0       0       0       0       0       0       0       0       
      +0       0       0       0       0
  1374 ;;      Totals:         0       0       0       0       0       0       0       0       0       0       0       0       
      +0       0       0       0       0
  1375 ;;Total ram usage:        0 bytes
  1376 ;; Hardware stack levels used: 1
  1377 ;; Hardware stack levels required when called: 2
  1378 ;; This function calls:
  1379 ;;		Nothing
  1380 ;; This function is called by:
  1381 ;;		_MDE4
  1382 ;; This function uses a non-reentrant model
  1383 ;;
  1384                           
  1385                           	psect	text11
  1386   000D26                     __ptext11:
  1387                           	callstack 0
  1388   000D26                     _f_noSimula:
  1389                           	callstack 26
  1390   000D26  0012               	return		;funcret
  1391   000D28                     __end_of_f_noSimula:
  1392                           	callstack 0
  1393                           
  1394 ;; *************** function _e_simular *****************
  1395 ;; Defined at:
  1396 ;;		line 268 in file "AP_FuncionesMDE.c"
  1397 ;; Parameters:    Size  Location     Type
  1398 ;;		None
  1399 ;; Auto vars:     Size  Location     Type
  1400 ;;  var             4   52[COMRAM] float 
  1401 ;;  res             2   56[COMRAM] int 
  1402 ;; Return value:  Size  Location     Type
  1403 ;;                  2   50[COMRAM] int 
  1404 ;; Registers used:
  1405 ;;		wreg, status,2, status,0, cstack
  1406 ;; Tracked objects:
  1407 ;;		On entry : 0/0
  1408 ;;		On exit  : 0/0
  1409 ;;		Unchanged: 0/0
  1410 ;; Data sizes:     COMRAM   BANK0   BANK1   BANK2   BANK3   BANK4   BANK5   BANK6   BANK7   BANK8   BANK9  BANK10  BANK1
      +1  BANK12  BANK13  BANK14  BANK15
  1411 ;;      Params:         2       0       0       0       0       0       0       0       0       0       0       0       
      +0       0       0       0       0
  1412 ;;      Locals:         6       0       0       0       0       0       0       0       0       0       0       0       
      +0       0       0       0       0
  1413 ;;      Temps:          0       0       0       0       0       0       0       0       0       0       0       0       
      +0       0       0       0       0
  1414 ;;      Totals:         8       0       0       0       0       0       0       0       0       0       0       0       
      +0       0       0       0       0
  1415 ;;Total ram usage:        8 bytes
  1416 ;; Hardware stack levels used: 1
  1417 ;; Hardware stack levels required when called: 4
  1418 ;; This function calls:
  1419 ;;		___awmod
  1420 ;;		___flge
  1421 ;;		___xxtofl
  1422 ;;		_rand
  1423 ;; This function is called by:
  1424 ;;		_MDE4
  1425 ;; This function uses a non-reentrant model
  1426 ;;
  1427                           
  1428                           	psect	text12
  1429   0006EA                     __ptext12:
  1430                           	callstack 0
  1431   0006EA                     _e_simular:
  1432                           	callstack 24
  1433   0006EA                     
  1434                           ;AP_FuncionesMDE.c: 270:     int res = 0 ;
  1435   0006EA  0E00               	movlw	0
  1436   0006EC  6E3A               	movwf	(e_simular@res+1)^0,c
  1437   0006EE  0E00               	movlw	0
  1438   0006F0  6E39               	movwf	e_simular@res^0,c
  1439   0006F2                     
  1440                           ;AP_FuncionesMDE.c: 272:     float var= rand() % 6 + 4;
  1441   0006F2  0E00               	movlw	0
  1442   0006F4  6E16               	movwf	(___awmod@divisor+1)^0,c
  1443   0006F6  0E06               	movlw	6
  1444   0006F8  6E15               	movwf	___awmod@divisor^0,c
  1445   0006FA  ECCA  F004         	call	_rand	;wreg free
  1446   0006FE  C00D  F013         	movff	?_rand,___awmod@dividend
  1447   000702  C00E  F014         	movff	?_rand+1,___awmod@dividend+1
  1448   000706  EC27  F004         	call	___awmod	;wreg free
  1449   00070A  0E04               	movlw	4
  1450   00070C  2613               	addwf	?___awmod^0,f,c
  1451   00070E  0E00               	movlw	0
  1452   000710  2214               	addwfc	(?___awmod+1)^0,f,c
  1453   000712  C013  F019         	movff	?___awmod,___xxtofl@val
  1454   000716  C014  F01A         	movff	?___awmod+1,___xxtofl@val+1
  1455   00071A  0E00               	movlw	0
  1456   00071C  BE1A               	btfsc	(___xxtofl@val+1)^0,7,c
  1457   00071E  0EFF               	movlw	-1
  1458   000720  6E1B               	movwf	(___xxtofl@val+2)^0,c
  1459   000722  6E1C               	movwf	(___xxtofl@val+3)^0,c
  1460   000724  0E01               	movlw	1
  1461   000726  ECF9  F000         	call	___xxtofl
  1462   00072A  C019  F035         	movff	?___xxtofl,e_simular@var
  1463   00072E  C01A  F036         	movff	?___xxtofl+1,e_simular@var+1
  1464   000732  C01B  F037         	movff	?___xxtofl+2,e_simular@var+2
  1465   000736  C01C  F038         	movff	?___xxtofl+3,e_simular@var+3
  1466   00073A                     
  1467                           ;AP_FuncionesMDE.c: 273:     if(cuenta_interrup-t_antirebote_ini >= var)
  1468   00073A  503F               	movf	_t_antirebote_ini^0,w,c
  1469   00073C  5C43               	subwf	_cuenta_interrup^0,w,c
  1470   00073E  6E19               	movwf	___xxtofl@val^0,c
  1471   000740  5040               	movf	(_t_antirebote_ini+1)^0,w,c
  1472   000742  5844               	subwfb	(_cuenta_interrup+1)^0,w,c
  1473   000744  6E1A               	movwf	(___xxtofl@val+1)^0,c
  1474   000746  5041               	movf	(_t_antirebote_ini+2)^0,w,c
  1475   000748  5845               	subwfb	(_cuenta_interrup+2)^0,w,c
  1476   00074A  6E1B               	movwf	(___xxtofl@val+2)^0,c
  1477   00074C  5042               	movf	(_t_antirebote_ini+3)^0,w,c
  1478   00074E  5846               	subwfb	(_cuenta_interrup+3)^0,w,c
  1479   000750  6E1C               	movwf	(___xxtofl@val+3)^0,c
  1480   000752  0E00               	movlw	0
  1481   000754  ECF9  F000         	call	___xxtofl
  1482   000758  C019  F027         	movff	?___xxtofl,___flge@ff1
  1483   00075C  C01A  F028         	movff	?___xxtofl+1,___flge@ff1+1
  1484   000760  C01B  F029         	movff	?___xxtofl+2,___flge@ff1+2
  1485   000764  C01C  F02A         	movff	?___xxtofl+3,___flge@ff1+3
  1486   000768  C035  F02B         	movff	e_simular@var,___flge@ff2
  1487   00076C  C036  F02C         	movff	e_simular@var+1,___flge@ff2+1
  1488   000770  C037  F02D         	movff	e_simular@var+2,___flge@ff2+2
  1489   000774  C038  F02E         	movff	e_simular@var+3,___flge@ff2+3
  1490   000778  ECF3  F002         	call	___flge	;wreg free
  1491   00077C  A0D8               	btfss	status,0,c
  1492   00077E  EFC3  F003         	goto	u951
  1493   000782  EFC5  F003         	goto	u950
  1494   000786                     u951:
  1495   000786  EFC9  F003         	goto	l1641
  1496   00078A                     u950:
  1497   00078A                     
  1498                           ;AP_FuncionesMDE.c: 274:   res=1;
  1499   00078A  0E00               	movlw	0
  1500   00078C  6E3A               	movwf	(e_simular@res+1)^0,c
  1501   00078E  0E01               	movlw	1
  1502   000790  6E39               	movwf	e_simular@res^0,c
  1503   000792                     l1641:
  1504                           
  1505                           ;AP_FuncionesMDE.c: 276:     return res ;
  1506   000792  C039  F033         	movff	e_simular@res,?_e_simular
  1507   000796  C03A  F034         	movff	e_simular@res+1,?_e_simular+1
  1508   00079A  0012               	return		;funcret
  1509   00079C                     __end_of_e_simular:
  1510                           	callstack 0
  1511                           
  1512 ;; *************** function _e_noSimular *****************
  1513 ;; Defined at:
  1514 ;;		line 291 in file "AP_FuncionesMDE.c"
  1515 ;; Parameters:    Size  Location     Type
  1516 ;;		None
  1517 ;; Auto vars:     Size  Location     Type
  1518 ;;  var             4   52[COMRAM] float 
  1519 ;;  res             2   56[COMRAM] int 
  1520 ;; Return value:  Size  Location     Type
  1521 ;;                  2   50[COMRAM] int 
  1522 ;; Registers used:
  1523 ;;		wreg, status,2, status,0, cstack
  1524 ;; Tracked objects:
  1525 ;;		On entry : 0/0
  1526 ;;		On exit  : 0/0
  1527 ;;		Unchanged: 0/0
  1528 ;; Data sizes:     COMRAM   BANK0   BANK1   BANK2   BANK3   BANK4   BANK5   BANK6   BANK7   BANK8   BANK9  BANK10  BANK1
      +1  BANK12  BANK13  BANK14  BANK15
  1529 ;;      Params:         2       0       0       0       0       0       0       0       0       0       0       0       
      +0       0       0       0       0
  1530 ;;      Locals:         6       0       0       0       0       0       0       0       0       0       0       0       
      +0       0       0       0       0
  1531 ;;      Temps:          0       0       0       0       0       0       0       0       0       0       0       0       
      +0       0       0       0       0
  1532 ;;      Totals:         8       0       0       0       0       0       0       0       0       0       0       0       
      +0       0       0       0       0
  1533 ;;Total ram usage:        8 bytes
  1534 ;; Hardware stack levels used: 1
  1535 ;; Hardware stack levels required when called: 4
  1536 ;; This function calls:
  1537 ;;		___awmod
  1538 ;;		___flge
  1539 ;;		___xxtofl
  1540 ;;		_rand
  1541 ;; This function is called by:
  1542 ;;		_MDE4
  1543 ;; This function uses a non-reentrant model
  1544 ;;
  1545                           
  1546                           	psect	text13
  1547   00079C                     __ptext13:
  1548                           	callstack 0
  1549   00079C                     _e_noSimular:
  1550                           	callstack 24
  1551   00079C                     
  1552                           ;AP_FuncionesMDE.c: 293:     int res = 0 ;
  1553   00079C  0E00               	movlw	0
  1554   00079E  6E3A               	movwf	(e_noSimular@res+1)^0,c
  1555   0007A0  0E00               	movlw	0
  1556   0007A2  6E39               	movwf	e_noSimular@res^0,c
  1557   0007A4                     
  1558                           ;AP_FuncionesMDE.c: 295:     float var=rand() % 6 + 4;
  1559   0007A4  0E00               	movlw	0
  1560   0007A6  6E16               	movwf	(___awmod@divisor+1)^0,c
  1561   0007A8  0E06               	movlw	6
  1562   0007AA  6E15               	movwf	___awmod@divisor^0,c
  1563   0007AC  ECCA  F004         	call	_rand	;wreg free
  1564   0007B0  C00D  F013         	movff	?_rand,___awmod@dividend
  1565   0007B4  C00E  F014         	movff	?_rand+1,___awmod@dividend+1
  1566   0007B8  EC27  F004         	call	___awmod	;wreg free
  1567   0007BC  0E04               	movlw	4
  1568   0007BE  2613               	addwf	?___awmod^0,f,c
  1569   0007C0  0E00               	movlw	0
  1570   0007C2  2214               	addwfc	(?___awmod+1)^0,f,c
  1571   0007C4  C013  F019         	movff	?___awmod,___xxtofl@val
  1572   0007C8  C014  F01A         	movff	?___awmod+1,___xxtofl@val+1
  1573   0007CC  0E00               	movlw	0
  1574   0007CE  BE1A               	btfsc	(___xxtofl@val+1)^0,7,c
  1575   0007D0  0EFF               	movlw	-1
  1576   0007D2  6E1B               	movwf	(___xxtofl@val+2)^0,c
  1577   0007D4  6E1C               	movwf	(___xxtofl@val+3)^0,c
  1578   0007D6  0E01               	movlw	1
  1579   0007D8  ECF9  F000         	call	___xxtofl
  1580   0007DC  C019  F035         	movff	?___xxtofl,e_noSimular@var
  1581   0007E0  C01A  F036         	movff	?___xxtofl+1,e_noSimular@var+1
  1582   0007E4  C01B  F037         	movff	?___xxtofl+2,e_noSimular@var+2
  1583   0007E8  C01C  F038         	movff	?___xxtofl+3,e_noSimular@var+3
  1584   0007EC                     
  1585                           ;AP_FuncionesMDE.c: 296:     if(cuenta_interrup-t_antirebote_ini >= var)
  1586   0007EC  503F               	movf	_t_antirebote_ini^0,w,c
  1587   0007EE  5C43               	subwf	_cuenta_interrup^0,w,c
  1588   0007F0  6E19               	movwf	___xxtofl@val^0,c
  1589   0007F2  5040               	movf	(_t_antirebote_ini+1)^0,w,c
  1590   0007F4  5844               	subwfb	(_cuenta_interrup+1)^0,w,c
  1591   0007F6  6E1A               	movwf	(___xxtofl@val+1)^0,c
  1592   0007F8  5041               	movf	(_t_antirebote_ini+2)^0,w,c
  1593   0007FA  5845               	subwfb	(_cuenta_interrup+2)^0,w,c
  1594   0007FC  6E1B               	movwf	(___xxtofl@val+2)^0,c
  1595   0007FE  5042               	movf	(_t_antirebote_ini+3)^0,w,c
  1596   000800  5846               	subwfb	(_cuenta_interrup+3)^0,w,c
  1597   000802  6E1C               	movwf	(___xxtofl@val+3)^0,c
  1598   000804  0E00               	movlw	0
  1599   000806  ECF9  F000         	call	___xxtofl
  1600   00080A  C019  F027         	movff	?___xxtofl,___flge@ff1
  1601   00080E  C01A  F028         	movff	?___xxtofl+1,___flge@ff1+1
  1602   000812  C01B  F029         	movff	?___xxtofl+2,___flge@ff1+2
  1603   000816  C01C  F02A         	movff	?___xxtofl+3,___flge@ff1+3
  1604   00081A  C035  F02B         	movff	e_noSimular@var,___flge@ff2
  1605   00081E  C036  F02C         	movff	e_noSimular@var+1,___flge@ff2+1
  1606   000822  C037  F02D         	movff	e_noSimular@var+2,___flge@ff2+2
  1607   000826  C038  F02E         	movff	e_noSimular@var+3,___flge@ff2+3
  1608   00082A  ECF3  F002         	call	___flge	;wreg free
  1609   00082E  A0D8               	btfss	status,0,c
  1610   000830  EF1C  F004         	goto	u961
  1611   000834  EF1E  F004         	goto	u960
  1612   000838                     u961:
  1613   000838  EF22  F004         	goto	l1653
  1614   00083C                     u960:
  1615   00083C                     
  1616                           ;AP_FuncionesMDE.c: 297:   res=1;
  1617   00083C  0E00               	movlw	0
  1618   00083E  6E3A               	movwf	(e_noSimular@res+1)^0,c
  1619   000840  0E01               	movlw	1
  1620   000842  6E39               	movwf	e_noSimular@res^0,c
  1621   000844                     l1653:
  1622                           
  1623                           ;AP_FuncionesMDE.c: 299:     return res ;
  1624   000844  C039  F033         	movff	e_noSimular@res,?_e_noSimular
  1625   000848  C03A  F034         	movff	e_noSimular@res+1,?_e_noSimular+1
  1626   00084C  0012               	return		;funcret
  1627   00084E                     __end_of_e_noSimular:
  1628                           	callstack 0
  1629                           
  1630 ;; *************** function _rand *****************
  1631 ;; Defined at:
  1632 ;;		line 11 in file "C:\Program Files\Microchip\xc8\v2.40\pic\sources\c99\common\rand.c"
  1633 ;; Parameters:    Size  Location     Type
  1634 ;;		None
  1635 ;; Auto vars:     Size  Location     Type
  1636 ;;		None
  1637 ;; Return value:  Size  Location     Type
  1638 ;;                  2   12[COMRAM] int 
  1639 ;; Registers used:
  1640 ;;		wreg, status,2, status,0, cstack
  1641 ;; Tracked objects:
  1642 ;;		On entry : 0/0
  1643 ;;		On exit  : 0/0
  1644 ;;		Unchanged: 0/0
  1645 ;; Data sizes:     COMRAM   BANK0   BANK1   BANK2   BANK3   BANK4   BANK5   BANK6   BANK7   BANK8   BANK9  BANK10  BANK1
      +1  BANK12  BANK13  BANK14  BANK15
  1646 ;;      Params:         2       0       0       0       0       0       0       0       0       0       0       0       
      +0       0       0       0       0
  1647 ;;      Locals:         0       0       0       0       0       0       0       0       0       0       0       0       
      +0       0       0       0       0
  1648 ;;      Temps:          4       0       0       0       0       0       0       0       0       0       0       0       
      +0       0       0       0       0
  1649 ;;      Totals:         6       0       0       0       0       0       0       0       0       0       0       0       
      +0       0       0       0       0
  1650 ;;Total ram usage:        6 bytes
  1651 ;; Hardware stack levels used: 1
  1652 ;; Hardware stack levels required when called: 3
  1653 ;; This function calls:
  1654 ;;		___lmul
  1655 ;; This function is called by:
  1656 ;;		_e_simular
  1657 ;;		_e_noSimular
  1658 ;; This function uses a non-reentrant model
  1659 ;;
  1660                           
  1661                           	psect	text14
  1662   000994                     __ptext14:
  1663                           	callstack 0
  1664   000994                     _rand:
  1665                           	callstack 24
  1666   000994  C051  F001         	movff	_seed,___lmul@multiplier
  1667   000998  C052  F002         	movff	_seed+1,___lmul@multiplier+1
  1668   00099C  C053  F003         	movff	_seed+2,___lmul@multiplier+2
  1669   0009A0  C054  F004         	movff	_seed+3,___lmul@multiplier+3
  1670   0009A4  0E2D               	movlw	45
  1671   0009A6  6E05               	movwf	___lmul@multiplicand^0,c
  1672   0009A8  0E7F               	movlw	127
  1673   0009AA  6E06               	movwf	(___lmul@multiplicand+1)^0,c
  1674   0009AC  0E95               	movlw	149
  1675   0009AE  6E07               	movwf	(___lmul@multiplicand+2)^0,c
  1676   0009B0  0E4C               	movlw	76
  1677   0009B2  6E08               	movwf	(___lmul@multiplicand+3)^0,c
  1678   0009B4  EC00  F005         	call	___lmul	;wreg free
  1679   0009B8  0E01               	movlw	1
  1680   0009BA  2401               	addwf	?___lmul^0,w,c
  1681   0009BC  6E51               	movwf	_seed^0,c
  1682   0009BE  0E00               	movlw	0
  1683   0009C0  2002               	addwfc	(?___lmul+1)^0,w,c
  1684   0009C2  6E52               	movwf	(_seed+1)^0,c
  1685   0009C4  0E00               	movlw	0
  1686   0009C6  2003               	addwfc	(?___lmul+2)^0,w,c
  1687   0009C8  6E53               	movwf	(_seed+2)^0,c
  1688   0009CA  0E00               	movlw	0
  1689   0009CC  2004               	addwfc	(?___lmul+3)^0,w,c
  1690   0009CE  6E54               	movwf	(_seed+3)^0,c
  1691   0009D0  C051  F00F         	movff	_seed,??_rand
  1692   0009D4  C052  F010         	movff	_seed+1,??_rand+1
  1693   0009D8  C053  F011         	movff	_seed+2,??_rand+2
  1694   0009DC  C054  F012         	movff	_seed+3,??_rand+3
  1695   0009E0  0E12               	movlw	18
  1696   0009E2  EFF8  F004         	goto	u790
  1697   0009E6                     u795:
  1698   0009E6  90D8               	bcf	status,0,c
  1699   0009E8  3212               	rrcf	(??_rand+3)^0,f,c
  1700   0009EA  3211               	rrcf	(??_rand+2)^0,f,c
  1701   0009EC  3210               	rrcf	(??_rand+1)^0,f,c
  1702   0009EE  320F               	rrcf	??_rand^0,f,c
  1703   0009F0                     u790:
  1704   0009F0  2EE8               	decfsz	wreg,f,c
  1705   0009F2  EFF3  F004         	goto	u795
  1706   0009F6  C00F  F00D         	movff	??_rand,?_rand
  1707   0009FA  C010  F00E         	movff	??_rand+1,?_rand+1
  1708   0009FE  0012               	return		;funcret
  1709   000A00                     __end_of_rand:
  1710                           	callstack 0
  1711                           
  1712 ;; *************** function ___lmul *****************
  1713 ;; Defined at:
  1714 ;;		line 15 in file "C:\Program Files\Microchip\xc8\v2.40\pic\sources\c99\common\Umul32.c"
  1715 ;; Parameters:    Size  Location     Type
  1716 ;;  multiplier      4    0[COMRAM] unsigned long 
  1717 ;;  multiplicand    4    4[COMRAM] unsigned long 
  1718 ;; Auto vars:     Size  Location     Type
  1719 ;;  product         4    8[COMRAM] unsigned long 
  1720 ;; Return value:  Size  Location     Type
  1721 ;;                  4    0[COMRAM] unsigned long 
  1722 ;; Registers used:
  1723 ;;		wreg, status,2, status,0
  1724 ;; Tracked objects:
  1725 ;;		On entry : 0/0
  1726 ;;		On exit  : 0/0
  1727 ;;		Unchanged: 0/0
  1728 ;; Data sizes:     COMRAM   BANK0   BANK1   BANK2   BANK3   BANK4   BANK5   BANK6   BANK7   BANK8   BANK9  BANK10  BANK1
      +1  BANK12  BANK13  BANK14  BANK15
  1729 ;;      Params:         8       0       0       0       0       0       0       0       0       0       0       0       
      +0       0       0       0       0
  1730 ;;      Locals:         4       0       0       0       0       0       0       0       0       0       0       0       
      +0       0       0       0       0
  1731 ;;      Temps:          0       0       0       0       0       0       0       0       0       0       0       0       
      +0       0       0       0       0
  1732 ;;      Totals:        12       0       0       0       0       0       0       0       0       0       0       0       
      +0       0       0       0       0
  1733 ;;Total ram usage:       12 bytes
  1734 ;; Hardware stack levels used: 1
  1735 ;; Hardware stack levels required when called: 2
  1736 ;; This function calls:
  1737 ;;		Nothing
  1738 ;; This function is called by:
  1739 ;;		_rand
  1740 ;; This function uses a non-reentrant model
  1741 ;;
  1742                           
  1743                           	psect	text15
  1744   000A00                     __ptext15:
  1745                           	callstack 0
  1746   000A00                     ___lmul:
  1747                           	callstack 24
  1748   000A00  0E00               	movlw	0
  1749   000A02  6E09               	movwf	___lmul@product^0,c
  1750   000A04  0E00               	movlw	0
  1751   000A06  6E0A               	movwf	(___lmul@product+1)^0,c
  1752   000A08  0E00               	movlw	0
  1753   000A0A  6E0B               	movwf	(___lmul@product+2)^0,c
  1754   000A0C  0E00               	movlw	0
  1755   000A0E  6E0C               	movwf	(___lmul@product+3)^0,c
  1756   000A10                     l1441:
  1757   000A10  A001               	btfss	___lmul@multiplier^0,0,c
  1758   000A12  EF0D  F005         	goto	u611
  1759   000A16  EF0F  F005         	goto	u610
  1760   000A1A                     u611:
  1761   000A1A  EF17  F005         	goto	l1445
  1762   000A1E                     u610:
  1763   000A1E  5005               	movf	___lmul@multiplicand^0,w,c
  1764   000A20  2609               	addwf	___lmul@product^0,f,c
  1765   000A22  5006               	movf	(___lmul@multiplicand+1)^0,w,c
  1766   000A24  220A               	addwfc	(___lmul@product+1)^0,f,c
  1767   000A26  5007               	movf	(___lmul@multiplicand+2)^0,w,c
  1768   000A28  220B               	addwfc	(___lmul@product+2)^0,f,c
  1769   000A2A  5008               	movf	(___lmul@multiplicand+3)^0,w,c
  1770   000A2C  220C               	addwfc	(___lmul@product+3)^0,f,c
  1771   000A2E                     l1445:
  1772   000A2E  90D8               	bcf	status,0,c
  1773   000A30  3605               	rlcf	___lmul@multiplicand^0,f,c
  1774   000A32  3606               	rlcf	(___lmul@multiplicand+1)^0,f,c
  1775   000A34  3607               	rlcf	(___lmul@multiplicand+2)^0,f,c
  1776   000A36  3608               	rlcf	(___lmul@multiplicand+3)^0,f,c
  1777   000A38  90D8               	bcf	status,0,c
  1778   000A3A  3204               	rrcf	(___lmul@multiplier+3)^0,f,c
  1779   000A3C  3203               	rrcf	(___lmul@multiplier+2)^0,f,c
  1780   000A3E  3202               	rrcf	(___lmul@multiplier+1)^0,f,c
  1781   000A40  3201               	rrcf	___lmul@multiplier^0,f,c
  1782   000A42  5001               	movf	___lmul@multiplier^0,w,c
  1783   000A44  1002               	iorwf	(___lmul@multiplier+1)^0,w,c
  1784   000A46  1003               	iorwf	(___lmul@multiplier+2)^0,w,c
  1785   000A48  1004               	iorwf	(___lmul@multiplier+3)^0,w,c
  1786   000A4A  A4D8               	btfss	status,2,c
  1787   000A4C  EF2A  F005         	goto	u621
  1788   000A50  EF2C  F005         	goto	u620
  1789   000A54                     u621:
  1790   000A54  EF08  F005         	goto	l1441
  1791   000A58                     u620:
  1792   000A58  C009  F001         	movff	___lmul@product,?___lmul
  1793   000A5C  C00A  F002         	movff	___lmul@product+1,?___lmul+1
  1794   000A60  C00B  F003         	movff	___lmul@product+2,?___lmul+2
  1795   000A64  C00C  F004         	movff	___lmul@product+3,?___lmul+3
  1796   000A68  0012               	return		;funcret
  1797   000A6A                     __end_of___lmul:
  1798                           	callstack 0
  1799                           
  1800 ;; *************** function ___awmod *****************
  1801 ;; Defined at:
  1802 ;;		line 7 in file "C:\Program Files\Microchip\xc8\v2.40\pic\sources\c99\common\awmod.c"
  1803 ;; Parameters:    Size  Location     Type
  1804 ;;  dividend        2   18[COMRAM] int 
  1805 ;;  divisor         2   20[COMRAM] int 
  1806 ;; Auto vars:     Size  Location     Type
  1807 ;;  sign            1   23[COMRAM] unsigned char 
  1808 ;;  counter         1   22[COMRAM] unsigned char 
  1809 ;; Return value:  Size  Location     Type
  1810 ;;                  2   18[COMRAM] int 
  1811 ;; Registers used:
  1812 ;;		wreg, status,2, status,0
  1813 ;; Tracked objects:
  1814 ;;		On entry : 0/0
  1815 ;;		On exit  : 0/0
  1816 ;;		Unchanged: 0/0
  1817 ;; Data sizes:     COMRAM   BANK0   BANK1   BANK2   BANK3   BANK4   BANK5   BANK6   BANK7   BANK8   BANK9  BANK10  BANK1
      +1  BANK12  BANK13  BANK14  BANK15
  1818 ;;      Params:         4       0       0       0       0       0       0       0       0       0       0       0       
      +0       0       0       0       0
  1819 ;;      Locals:         2       0       0       0       0       0       0       0       0       0       0       0       
      +0       0       0       0       0
  1820 ;;      Temps:          0       0       0       0       0       0       0       0       0       0       0       0       
      +0       0       0       0       0
  1821 ;;      Totals:         6       0       0       0       0       0       0       0       0       0       0       0       
      +0       0       0       0       0
  1822 ;;Total ram usage:        6 bytes
  1823 ;; Hardware stack levels used: 1
  1824 ;; Hardware stack levels required when called: 2
  1825 ;; This function calls:
  1826 ;;		Nothing
  1827 ;; This function is called by:
  1828 ;;		_e_simular
  1829 ;;		_e_noSimular
  1830 ;; This function uses a non-reentrant model
  1831 ;;
  1832                           
  1833                           	psect	text16
  1834   00084E                     __ptext16:
  1835                           	callstack 0
  1836   00084E                     ___awmod:
  1837                           	callstack 25
  1838   00084E  0E00               	movlw	0
  1839   000850  6E18               	movwf	___awmod@sign^0,c
  1840   000852  BE14               	btfsc	(___awmod@dividend+1)^0,7,c
  1841   000854  EF30  F004         	goto	u800
  1842   000858  EF2E  F004         	goto	u801
  1843   00085C                     u801:
  1844   00085C  EF36  F004         	goto	l1543
  1845   000860                     u800:
  1846   000860  6C13               	negf	___awmod@dividend^0,c
  1847   000862  1E14               	comf	(___awmod@dividend+1)^0,f,c
  1848   000864  B0D8               	btfsc	status,0,c
  1849   000866  2A14               	incf	(___awmod@dividend+1)^0,f,c
  1850   000868  0E01               	movlw	1
  1851   00086A  6E18               	movwf	___awmod@sign^0,c
  1852   00086C                     l1543:
  1853   00086C  BE16               	btfsc	(___awmod@divisor+1)^0,7,c
  1854   00086E  EF3D  F004         	goto	u810
  1855   000872  EF3B  F004         	goto	u811
  1856   000876                     u811:
  1857   000876  EF41  F004         	goto	l1547
  1858   00087A                     u810:
  1859   00087A  6C15               	negf	___awmod@divisor^0,c
  1860   00087C  1E16               	comf	(___awmod@divisor+1)^0,f,c
  1861   00087E  B0D8               	btfsc	status,0,c
  1862   000880  2A16               	incf	(___awmod@divisor+1)^0,f,c
  1863   000882                     l1547:
  1864   000882  5015               	movf	___awmod@divisor^0,w,c
  1865   000884  1016               	iorwf	(___awmod@divisor+1)^0,w,c
  1866   000886  B4D8               	btfsc	status,2,c
  1867   000888  EF48  F004         	goto	u821
  1868   00088C  EF4A  F004         	goto	u820
  1869   000890                     u821:
  1870   000890  EF6E  F004         	goto	l1563
  1871   000894                     u820:
  1872   000894  0E01               	movlw	1
  1873   000896  6E17               	movwf	___awmod@counter^0,c
  1874   000898  EF52  F004         	goto	l1553
  1875   00089C                     l1551:
  1876   00089C  90D8               	bcf	status,0,c
  1877   00089E  3615               	rlcf	___awmod@divisor^0,f,c
  1878   0008A0  3616               	rlcf	(___awmod@divisor+1)^0,f,c
  1879   0008A2  2A17               	incf	___awmod@counter^0,f,c
  1880   0008A4                     l1553:
  1881   0008A4  AE16               	btfss	(___awmod@divisor+1)^0,7,c
  1882   0008A6  EF57  F004         	goto	u831
  1883   0008AA  EF59  F004         	goto	u830
  1884   0008AE                     u831:
  1885   0008AE  EF4E  F004         	goto	l1551
  1886   0008B2                     u830:
  1887   0008B2                     l1555:
  1888   0008B2  5015               	movf	___awmod@divisor^0,w,c
  1889   0008B4  5C13               	subwf	___awmod@dividend^0,w,c
  1890   0008B6  5016               	movf	(___awmod@divisor+1)^0,w,c
  1891   0008B8  5814               	subwfb	(___awmod@dividend+1)^0,w,c
  1892   0008BA  A0D8               	btfss	status,0,c
  1893   0008BC  EF62  F004         	goto	u841
  1894   0008C0  EF64  F004         	goto	u840
  1895   0008C4                     u841:
  1896   0008C4  EF68  F004         	goto	l1559
  1897   0008C8                     u840:
  1898   0008C8  5015               	movf	___awmod@divisor^0,w,c
  1899   0008CA  5E13               	subwf	___awmod@dividend^0,f,c
  1900   0008CC  5016               	movf	(___awmod@divisor+1)^0,w,c
  1901   0008CE  5A14               	subwfb	(___awmod@dividend+1)^0,f,c
  1902   0008D0                     l1559:
  1903   0008D0  90D8               	bcf	status,0,c
  1904   0008D2  3216               	rrcf	(___awmod@divisor+1)^0,f,c
  1905   0008D4  3215               	rrcf	___awmod@divisor^0,f,c
  1906   0008D6  2E17               	decfsz	___awmod@counter^0,f,c
  1907   0008D8  EF59  F004         	goto	l1555
  1908   0008DC                     l1563:
  1909   0008DC  5018               	movf	___awmod@sign^0,w,c
  1910   0008DE  B4D8               	btfsc	status,2,c
  1911   0008E0  EF74  F004         	goto	u851
  1912   0008E4  EF76  F004         	goto	u850
  1913   0008E8                     u851:
  1914   0008E8  EF7A  F004         	goto	l1567
  1915   0008EC                     u850:
  1916   0008EC  6C13               	negf	___awmod@dividend^0,c
  1917   0008EE  1E14               	comf	(___awmod@dividend+1)^0,f,c
  1918   0008F0  B0D8               	btfsc	status,0,c
  1919   0008F2  2A14               	incf	(___awmod@dividend+1)^0,f,c
  1920   0008F4                     l1567:
  1921   0008F4  C013  F013         	movff	___awmod@dividend,?___awmod
  1922   0008F8  C014  F014         	movff	___awmod@dividend+1,?___awmod+1
  1923   0008FC  0012               	return		;funcret
  1924   0008FE                     __end_of___awmod:
  1925                           	callstack 0
  1926                           
  1927 ;; *************** function _LED *****************
  1928 ;; Defined at:
  1929 ;;		line 164 in file "AP_MDE.c"
  1930 ;; Parameters:    Size  Location     Type
  1931 ;;  Estado          2    0[COMRAM] int 
  1932 ;; Auto vars:     Size  Location     Type
  1933 ;;		None
  1934 ;; Return value:  Size  Location     Type
  1935 ;;                  2    0[COMRAM] int 
  1936 ;; Registers used:
  1937 ;;		wreg, status,2, status,0, cstack
  1938 ;; Tracked objects:
  1939 ;;		On entry : 0/0
  1940 ;;		On exit  : 0/0
  1941 ;;		Unchanged: 0/0
  1942 ;; Data sizes:     COMRAM   BANK0   BANK1   BANK2   BANK3   BANK4   BANK5   BANK6   BANK7   BANK8   BANK9  BANK10  BANK1
      +1  BANK12  BANK13  BANK14  BANK15
  1943 ;;      Params:         2       0       0       0       0       0       0       0       0       0       0       0       
      +0       0       0       0       0
  1944 ;;      Locals:         0       0       0       0       0       0       0       0       0       0       0       0       
      +0       0       0       0       0
  1945 ;;      Temps:          2       0       0       0       0       0       0       0       0       0       0       0       
      +0       0       0       0       0
  1946 ;;      Totals:         4       0       0       0       0       0       0       0       0       0       0       0       
      +0       0       0       0       0
  1947 ;;Total ram usage:        4 bytes
  1948 ;; Hardware stack levels used: 1
  1949 ;; Hardware stack levels required when called: 3
  1950 ;; This function calls:
  1951 ;;		_f_apagar
  1952 ;;		_f_encender
  1953 ;; This function is called by:
  1954 ;;		_MaquinaDeEstados
  1955 ;; This function uses a non-reentrant model
  1956 ;;
  1957                           
  1958                           	psect	text17
  1959   0008FE                     __ptext17:
  1960                           	callstack 0
  1961   0008FE                     _LED:
  1962                           	callstack 26
  1963   0008FE                     
  1964                           ;AP_MDE.c: 165:     switch ( Estado )
  1965   0008FE  EFAB  F004         	goto	l1759
  1966   000902                     l1739:
  1967                           
  1968                           ;AP_MDE.c: 169:             f_apagar();
  1969   000902  EC91  F006         	call	_f_apagar	;wreg free
  1970   000906                     
  1971                           ;AP_MDE.c: 171:             Estado = 1;
  1972   000906  0E00               	movlw	0
  1973   000908  6E02               	movwf	(LED@Estado+1)^0,c
  1974   00090A  0E01               	movlw	1
  1975   00090C  6E01               	movwf	LED@Estado^0,c
  1976                           
  1977                           ;AP_MDE.c: 173:             break;
  1978   00090E  EFC5  F004         	goto	l216
  1979   000912                     l1743:
  1980                           
  1981                           ;AP_MDE.c: 176:             if ( confirmado_on == 1 )
  1982   000912  044B               	decf	_confirmado_on^0,w,c
  1983   000914  104C               	iorwf	(_confirmado_on+1)^0,w,c
  1984   000916  A4D8               	btfss	status,2,c
  1985   000918  EF90  F004         	goto	u1071
  1986   00091C  EF92  F004         	goto	u1070
  1987   000920                     u1071:
  1988   000920  EFC5  F004         	goto	l216
  1989   000924                     u1070:
  1990   000924                     
  1991                           ;AP_MDE.c: 177:             {;AP_MDE.c: 178:                 f_encender();
  1992   000924  EC8F  F006         	call	_f_encender	;wreg free
  1993   000928                     
  1994                           ;AP_MDE.c: 179:                 Estado = 2;
  1995   000928  0E00               	movlw	0
  1996   00092A  6E02               	movwf	(LED@Estado+1)^0,c
  1997   00092C  0E02               	movlw	2
  1998   00092E  6E01               	movwf	LED@Estado^0,c
  1999   000930  EFC5  F004         	goto	l216
  2000   000934                     l1749:
  2001                           
  2002                           ;AP_MDE.c: 185:             if ( confirmado_off == 1 )
  2003   000934  045B               	decf	_confirmado_off^0,w,c
  2004   000936  105C               	iorwf	(_confirmado_off+1)^0,w,c
  2005   000938  A4D8               	btfss	status,2,c
  2006   00093A  EFA1  F004         	goto	u1081
  2007   00093E  EFA3  F004         	goto	u1080
  2008   000942                     u1081:
  2009   000942  EFC5  F004         	goto	l216
  2010   000946                     u1080:
  2011   000946  EF81  F004         	goto	l1739
  2012   00094A                     l1755:
  2013                           
  2014                           ;AP_MDE.c: 197:             Estado = 0 ;
  2015   00094A  0E00               	movlw	0
  2016   00094C  6E02               	movwf	(LED@Estado+1)^0,c
  2017   00094E  0E00               	movlw	0
  2018   000950  6E01               	movwf	LED@Estado^0,c
  2019                           
  2020                           ;AP_MDE.c: 198:             break;
  2021   000952  EFC5  F004         	goto	l216
  2022   000956                     l1759:
  2023   000956  C001  F003         	movff	LED@Estado,??_LED
  2024   00095A  C002  F004         	movff	LED@Estado+1,??_LED+1
  2025                           
  2026                           ; Switch on 2 bytes has been partitioned into a top level switch of size 1, and 1 sub-sw
      +                          itches
  2027                           ; Switch size 1, requested type "simple"
  2028                           ; Number of cases is 1, Range of values is 0 to 0
  2029                           ; switch strategies available:
  2030                           ; Name         Instructions Cycles
  2031                           ; simple_byte            4     3 (average)
  2032                           ;	Chosen strategy is simple_byte
  2033   00095E  5004               	movf	(??_LED+1)^0,w,c
  2034   000960  0A00               	xorlw	0	; case 0
  2035   000962  B4D8               	btfsc	status,2,c
  2036   000964  EFB6  F004         	goto	l1887
  2037   000968  EFA5  F004         	goto	l1755
  2038   00096C                     l1887:
  2039                           
  2040                           ; Switch size 1, requested type "simple"
  2041                           ; Number of cases is 3, Range of values is 0 to 2
  2042                           ; switch strategies available:
  2043                           ; Name         Instructions Cycles
  2044                           ; simple_byte           10     6 (average)
  2045                           ;	Chosen strategy is simple_byte
  2046   00096C  5003               	movf	??_LED^0,w,c
  2047   00096E  0A00               	xorlw	0	; case 0
  2048   000970  B4D8               	btfsc	status,2,c
  2049   000972  EF81  F004         	goto	l1739
  2050   000976  0A01               	xorlw	1	; case 1
  2051   000978  B4D8               	btfsc	status,2,c
  2052   00097A  EF89  F004         	goto	l1743
  2053   00097E  0A03               	xorlw	3	; case 2
  2054   000980  B4D8               	btfsc	status,2,c
  2055   000982  EF9A  F004         	goto	l1749
  2056   000986  EFA5  F004         	goto	l1755
  2057   00098A                     l216:
  2058                           
  2059                           ;AP_MDE.c: 201:     return Estado ;
  2060   00098A  C001  F001         	movff	LED@Estado,?_LED
  2061   00098E  C002  F002         	movff	LED@Estado+1,?_LED+1
  2062   000992  0012               	return		;funcret
  2063   000994                     __end_of_LED:
  2064                           	callstack 0
  2065                           
  2066 ;; *************** function _f_encender *****************
  2067 ;; Defined at:
  2068 ;;		line 185 in file "AP_FuncionesMDE.c"
  2069 ;; Parameters:    Size  Location     Type
  2070 ;;		None
  2071 ;; Auto vars:     Size  Location     Type
  2072 ;;		None
  2073 ;; Return value:  Size  Location     Type
  2074 ;;                  1    wreg      void 
  2075 ;; Registers used:
  2076 ;;		None
  2077 ;; Tracked objects:
  2078 ;;		On entry : 0/0
  2079 ;;		On exit  : 0/0
  2080 ;;		Unchanged: 0/0
  2081 ;; Data sizes:     COMRAM   BANK0   BANK1   BANK2   BANK3   BANK4   BANK5   BANK6   BANK7   BANK8   BANK9  BANK10  BANK1
      +1  BANK12  BANK13  BANK14  BANK15
  2082 ;;      Params:         0       0       0       0       0       0       0       0       0       0       0       0       
      +0       0       0       0       0
  2083 ;;      Locals:         0       0       0       0       0       0       0       0       0       0       0       0       
      +0       0       0       0       0
  2084 ;;      Temps:          0       0       0       0       0       0       0       0       0       0       0       0       
      +0       0       0       0       0
  2085 ;;      Totals:         0       0       0       0       0       0       0       0       0       0       0       0       
      +0       0       0       0       0
  2086 ;;Total ram usage:        0 bytes
  2087 ;; Hardware stack levels used: 1
  2088 ;; Hardware stack levels required when called: 2
  2089 ;; This function calls:
  2090 ;;		Nothing
  2091 ;; This function is called by:
  2092 ;;		_LED
  2093 ;;		_MDE4
  2094 ;; This function uses a non-reentrant model
  2095 ;;
  2096                           
  2097                           	psect	text18
  2098   000D1E                     __ptext18:
  2099                           	callstack 0
  2100   000D1E                     _f_encender:
  2101                           	callstack 26
  2102   000D1E                     
  2103                           ;AP_FuncionesMDE.c: 187:     LATDbits.LATD0 = 1;
  2104   000D1E  808C               	bsf	140,0,c	;volatile
  2105   000D20  0012               	return		;funcret
  2106   000D22                     __end_of_f_encender:
  2107                           	callstack 0
  2108                           
  2109 ;; *************** function _f_apagar *****************
  2110 ;; Defined at:
  2111 ;;		line 168 in file "AP_FuncionesMDE.c"
  2112 ;; Parameters:    Size  Location     Type
  2113 ;;		None
  2114 ;; Auto vars:     Size  Location     Type
  2115 ;;		None
  2116 ;; Return value:  Size  Location     Type
  2117 ;;                  1    wreg      void 
  2118 ;; Registers used:
  2119 ;;		None
  2120 ;; Tracked objects:
  2121 ;;		On entry : 0/0
  2122 ;;		On exit  : 0/0
  2123 ;;		Unchanged: 0/0
  2124 ;; Data sizes:     COMRAM   BANK0   BANK1   BANK2   BANK3   BANK4   BANK5   BANK6   BANK7   BANK8   BANK9  BANK10  BANK1
      +1  BANK12  BANK13  BANK14  BANK15
  2125 ;;      Params:         0       0       0       0       0       0       0       0       0       0       0       0       
      +0       0       0       0       0
  2126 ;;      Locals:         0       0       0       0       0       0       0       0       0       0       0       0       
      +0       0       0       0       0
  2127 ;;      Temps:          0       0       0       0       0       0       0       0       0       0       0       0       
      +0       0       0       0       0
  2128 ;;      Totals:         0       0       0       0       0       0       0       0       0       0       0       0       
      +0       0       0       0       0
  2129 ;;Total ram usage:        0 bytes
  2130 ;; Hardware stack levels used: 1
  2131 ;; Hardware stack levels required when called: 2
  2132 ;; This function calls:
  2133 ;;		Nothing
  2134 ;; This function is called by:
  2135 ;;		_LED
  2136 ;;		_MDE4
  2137 ;; This function uses a non-reentrant model
  2138 ;;
  2139                           
  2140                           	psect	text19
  2141   000D22                     __ptext19:
  2142                           	callstack 0
  2143   000D22                     _f_apagar:
  2144                           	callstack 26
  2145   000D22                     
  2146                           ;AP_FuncionesMDE.c: 170:     LATDbits.LATD0 = 0;
  2147   000D22  908C               	bcf	140,0,c	;volatile
  2148   000D24  0012               	return		;funcret
  2149   000D26                     __end_of_f_apagar:
  2150                           	callstack 0
  2151                           
  2152 ;; *************** function _INTENSIDAd *****************
  2153 ;; Defined at:
  2154 ;;		line 204 in file "AP_MDE.c"
  2155 ;; Parameters:    Size  Location     Type
  2156 ;;  Estado          2   54[COMRAM] int 
  2157 ;; Auto vars:     Size  Location     Type
  2158 ;;		None
  2159 ;; Return value:  Size  Location     Type
  2160 ;;                  2   54[COMRAM] int 
  2161 ;; Registers used:
  2162 ;;		wreg, status,2, status,0, cstack
  2163 ;; Tracked objects:
  2164 ;;		On entry : 0/0
  2165 ;;		On exit  : 0/0
  2166 ;;		Unchanged: 0/0
  2167 ;; Data sizes:     COMRAM   BANK0   BANK1   BANK2   BANK3   BANK4   BANK5   BANK6   BANK7   BANK8   BANK9  BANK10  BANK1
      +1  BANK12  BANK13  BANK14  BANK15
  2168 ;;      Params:         2       0       0       0       0       0       0       0       0       0       0       0       
      +0       0       0       0       0
  2169 ;;      Locals:         0       0       0       0       0       0       0       0       0       0       0       0       
      +0       0       0       0       0
  2170 ;;      Temps:          2       0       0       0       0       0       0       0       0       0       0       0       
      +0       0       0       0       0
  2171 ;;      Totals:         4       0       0       0       0       0       0       0       0       0       0       0       
      +0       0       0       0       0
  2172 ;;Total ram usage:        4 bytes
  2173 ;; Hardware stack levels used: 1
  2174 ;; Hardware stack levels required when called: 5
  2175 ;; This function calls:
  2176 ;;		_f_intdown
  2177 ;;		_f_intup
  2178 ;;		_s_llave_down
  2179 ;;		_s_llave_up
  2180 ;; This function is called by:
  2181 ;;		_MaquinaDeEstados
  2182 ;; This function uses a non-reentrant model
  2183 ;;
  2184                           
  2185                           	psect	text20
  2186   0003A6                     __ptext20:
  2187                           	callstack 0
  2188   0003A6                     _INTENSIDAd:
  2189                           	callstack 24
  2190   0003A6                     
  2191                           ;AP_MDE.c: 204: static int INTENSIDAd ( int Estado );AP_MDE.c: 205: {;AP_MDE.c: 206:    
      +                           switch ( Estado )
  2192   0003A6  EF42  F002         	goto	l1803
  2193   0003AA                     l1767:
  2194                           
  2195                           ;AP_MDE.c: 210:             intensidadlvl = 1;
  2196   0003AA  0E00               	movlw	0
  2197   0003AC  6E4A               	movwf	(_intensidadlvl+1)^0,c
  2198   0003AE  0E01               	movlw	1
  2199   0003B0  6E49               	movwf	_intensidadlvl^0,c
  2200                           
  2201                           ;AP_MDE.c: 211:             Estado = 1;
  2202   0003B2  0E00               	movlw	0
  2203   0003B4  6E38               	movwf	(INTENSIDAd@Estado+1)^0,c
  2204   0003B6  0E01               	movlw	1
  2205   0003B8  6E37               	movwf	INTENSIDAd@Estado^0,c
  2206                           
  2207                           ;AP_MDE.c: 213:             break;
  2208   0003BA  EF60  F002         	goto	l227
  2209   0003BE                     l1769:
  2210                           
  2211                           ;AP_MDE.c: 216:             if ( confirmado_on == 1 && s_llave_up())
  2212   0003BE  044B               	decf	_confirmado_on^0,w,c
  2213   0003C0  104C               	iorwf	(_confirmado_on+1)^0,w,c
  2214   0003C2  A4D8               	btfss	status,2,c
  2215   0003C4  EFE6  F001         	goto	u1091
  2216   0003C8  EFE8  F001         	goto	u1090
  2217   0003CC                     u1091:
  2218   0003CC  EFF9  F001         	goto	l1777
  2219   0003D0                     u1090:
  2220   0003D0  EC18  F006         	call	_s_llave_up	;wreg free
  2221   0003D4  5001               	movf	?_s_llave_up^0,w,c
  2222   0003D6  1002               	iorwf	(?_s_llave_up+1)^0,w,c
  2223   0003D8  B4D8               	btfsc	status,2,c
  2224   0003DA  EFF1  F001         	goto	u1101
  2225   0003DE  EFF3  F001         	goto	u1100
  2226   0003E2                     u1101:
  2227   0003E2  EFF9  F001         	goto	l1777
  2228   0003E6                     u1100:
  2229   0003E6                     
  2230                           ;AP_MDE.c: 217:             {;AP_MDE.c: 218:                 f_intup();
  2231   0003E6  EC93  F005         	call	_f_intup	;wreg free
  2232   0003EA                     
  2233                           ;AP_MDE.c: 219:                 Estado = 2;
  2234   0003EA  0E00               	movlw	0
  2235   0003EC  6E38               	movwf	(INTENSIDAd@Estado+1)^0,c
  2236   0003EE  0E02               	movlw	2
  2237   0003F0  6E37               	movwf	INTENSIDAd@Estado^0,c
  2238   0003F2                     l1777:
  2239                           
  2240                           ;AP_MDE.c: 221:             if(confirmado_on==1 && s_llave_down()){
  2241   0003F2  044B               	decf	_confirmado_on^0,w,c
  2242   0003F4  104C               	iorwf	(_confirmado_on+1)^0,w,c
  2243   0003F6  A4D8               	btfss	status,2,c
  2244   0003F8  EF00  F002         	goto	u1111
  2245   0003FC  EF02  F002         	goto	u1110
  2246   000400                     u1111:
  2247   000400  EF60  F002         	goto	l227
  2248   000404                     u1110:
  2249   000404  EC26  F006         	call	_s_llave_down	;wreg free
  2250   000408  5001               	movf	?_s_llave_down^0,w,c
  2251   00040A  1002               	iorwf	(?_s_llave_down+1)^0,w,c
  2252   00040C  B4D8               	btfsc	status,2,c
  2253   00040E  EF0B  F002         	goto	u1121
  2254   000412  EF0D  F002         	goto	u1120
  2255   000416                     u1121:
  2256   000416  EF60  F002         	goto	l227
  2257   00041A                     u1120:
  2258   00041A                     
  2259                           ;AP_MDE.c: 223:                 f_intdown();
  2260   00041A  ECAF  F005         	call	_f_intdown	;wreg free
  2261   00041E                     
  2262                           ;AP_MDE.c: 224:                 Estado= 2;
  2263   00041E  0E00               	movlw	0
  2264   000420  6E38               	movwf	(INTENSIDAd@Estado+1)^0,c
  2265   000422  0E02               	movlw	2
  2266   000424  6E37               	movwf	INTENSIDAd@Estado^0,c
  2267   000426  EF60  F002         	goto	l227
  2268   00042A                     l1785:
  2269                           
  2270                           ;AP_MDE.c: 230:             if ( confirmado_off == 1 )
  2271   00042A  045B               	decf	_confirmado_off^0,w,c
  2272   00042C  105C               	iorwf	(_confirmado_off+1)^0,w,c
  2273   00042E  A4D8               	btfss	status,2,c
  2274   000430  EF1C  F002         	goto	u1131
  2275   000434  EF1E  F002         	goto	u1130
  2276   000438                     u1131:
  2277   000438  EF22  F002         	goto	l1789
  2278   00043C                     u1130:
  2279   00043C                     
  2280                           ;AP_MDE.c: 231:             {;AP_MDE.c: 232:                 Estado = 3;
  2281   00043C  0E00               	movlw	0
  2282   00043E  6E38               	movwf	(INTENSIDAd@Estado+1)^0,c
  2283   000440  0E03               	movlw	3
  2284   000442  6E37               	movwf	INTENSIDAd@Estado^0,c
  2285   000444                     l1789:
  2286                           
  2287                           ;AP_MDE.c: 234:             if(confirmado_on==1){
  2288   000444  044B               	decf	_confirmado_on^0,w,c
  2289   000446  104C               	iorwf	(_confirmado_on+1)^0,w,c
  2290   000448  A4D8               	btfss	status,2,c
  2291   00044A  EF29  F002         	goto	u1141
  2292   00044E  EF2B  F002         	goto	u1140
  2293   000452                     u1141:
  2294   000452  EF60  F002         	goto	l227
  2295   000456                     u1140:
  2296   000456                     l1791:
  2297                           
  2298                           ;AP_MDE.c: 236:                 Estado=1;
  2299   000456  0E00               	movlw	0
  2300   000458  6E38               	movwf	(INTENSIDAd@Estado+1)^0,c
  2301   00045A  0E01               	movlw	1
  2302   00045C  6E37               	movwf	INTENSIDAd@Estado^0,c
  2303   00045E  EF60  F002         	goto	l227
  2304   000462                     l1795:
  2305                           
  2306                           ;AP_MDE.c: 246:             if(confirmado_on==1){
  2307   000462  044B               	decf	_confirmado_on^0,w,c
  2308   000464  104C               	iorwf	(_confirmado_on+1)^0,w,c
  2309   000466  A4D8               	btfss	status,2,c
  2310   000468  EF38  F002         	goto	u1151
  2311   00046C  EF3A  F002         	goto	u1150
  2312   000470                     u1151:
  2313   000470  EF60  F002         	goto	l227
  2314   000474                     u1150:
  2315   000474  EF2B  F002         	goto	l1791
  2316   000478                     l1799:
  2317                           
  2318                           ;AP_MDE.c: 254:             Estado = 0 ;
  2319   000478  0E00               	movlw	0
  2320   00047A  6E38               	movwf	(INTENSIDAd@Estado+1)^0,c
  2321   00047C  0E00               	movlw	0
  2322   00047E  6E37               	movwf	INTENSIDAd@Estado^0,c
  2323                           
  2324                           ;AP_MDE.c: 255:             break;
  2325   000480  EF60  F002         	goto	l227
  2326   000484                     l1803:
  2327   000484  C037  F039         	movff	INTENSIDAd@Estado,??_INTENSIDAd
  2328   000488  C038  F03A         	movff	INTENSIDAd@Estado+1,??_INTENSIDAd+1
  2329                           
  2330                           ; Switch on 2 bytes has been partitioned into a top level switch of size 1, and 1 sub-sw
      +                          itches
  2331                           ; Switch size 1, requested type "simple"
  2332                           ; Number of cases is 1, Range of values is 0 to 0
  2333                           ; switch strategies available:
  2334                           ; Name         Instructions Cycles
  2335                           ; simple_byte            4     3 (average)
  2336                           ;	Chosen strategy is simple_byte
  2337   00048C  503A               	movf	(??_INTENSIDAd+1)^0,w,c
  2338   00048E  0A00               	xorlw	0	; case 0
  2339   000490  B4D8               	btfsc	status,2,c
  2340   000492  EF4D  F002         	goto	l1889
  2341   000496  EF3C  F002         	goto	l1799
  2342   00049A                     l1889:
  2343                           
  2344                           ; Switch size 1, requested type "simple"
  2345                           ; Number of cases is 4, Range of values is 0 to 3
  2346                           ; switch strategies available:
  2347                           ; Name         Instructions Cycles
  2348                           ; simple_byte           13     7 (average)
  2349                           ;	Chosen strategy is simple_byte
  2350   00049A  5039               	movf	??_INTENSIDAd^0,w,c
  2351   00049C  0A00               	xorlw	0	; case 0
  2352   00049E  B4D8               	btfsc	status,2,c
  2353   0004A0  EFD5  F001         	goto	l1767
  2354   0004A4  0A01               	xorlw	1	; case 1
  2355   0004A6  B4D8               	btfsc	status,2,c
  2356   0004A8  EFDF  F001         	goto	l1769
  2357   0004AC  0A03               	xorlw	3	; case 2
  2358   0004AE  B4D8               	btfsc	status,2,c
  2359   0004B0  EF15  F002         	goto	l1785
  2360   0004B4  0A01               	xorlw	1	; case 3
  2361   0004B6  B4D8               	btfsc	status,2,c
  2362   0004B8  EF31  F002         	goto	l1795
  2363   0004BC  EF3C  F002         	goto	l1799
  2364   0004C0                     l227:
  2365                           
  2366                           ;AP_MDE.c: 258:     return Estado ;
  2367   0004C0  C037  F037         	movff	INTENSIDAd@Estado,?_INTENSIDAd
  2368   0004C4  C038  F038         	movff	INTENSIDAd@Estado+1,?_INTENSIDAd+1
  2369   0004C8  0012               	return		;funcret
  2370   0004CA                     __end_of_INTENSIDAd:
  2371                           	callstack 0
  2372                           
  2373 ;; *************** function _s_llave_up *****************
  2374 ;; Defined at:
  2375 ;;		line 93 in file "AP_FuncionesMDE.c"
  2376 ;; Parameters:    Size  Location     Type
  2377 ;;		None
  2378 ;; Auto vars:     Size  Location     Type
  2379 ;;		None
  2380 ;; Return value:  Size  Location     Type
  2381 ;;                  2    0[COMRAM] int 
  2382 ;; Registers used:
  2383 ;;		wreg, status,2
  2384 ;; Tracked objects:
  2385 ;;		On entry : 0/0
  2386 ;;		On exit  : 0/0
  2387 ;;		Unchanged: 0/0
  2388 ;; Data sizes:     COMRAM   BANK0   BANK1   BANK2   BANK3   BANK4   BANK5   BANK6   BANK7   BANK8   BANK9  BANK10  BANK1
      +1  BANK12  BANK13  BANK14  BANK15
  2389 ;;      Params:         2       0       0       0       0       0       0       0       0       0       0       0       
      +0       0       0       0       0
  2390 ;;      Locals:         0       0       0       0       0       0       0       0       0       0       0       0       
      +0       0       0       0       0
  2391 ;;      Temps:          1       0       0       0       0       0       0       0       0       0       0       0       
      +0       0       0       0       0
  2392 ;;      Totals:         3       0       0       0       0       0       0       0       0       0       0       0       
      +0       0       0       0       0
  2393 ;;Total ram usage:        3 bytes
  2394 ;; Hardware stack levels used: 1
  2395 ;; Hardware stack levels required when called: 2
  2396 ;; This function calls:
  2397 ;;		Nothing
  2398 ;; This function is called by:
  2399 ;;		_INTENSIDAd
  2400 ;; This function uses a non-reentrant model
  2401 ;;
  2402                           
  2403                           	psect	text21
  2404   000C30                     __ptext21:
  2405                           	callstack 0
  2406   000C30                     _s_llave_up:
  2407                           	callstack 26
  2408   000C30                     
  2409                           ;AP_FuncionesMDE.c: 95:     return PORTCbits.RC2 ;
  2410   000C30  B482               	btfsc	130,2,c	;volatile
  2411   000C32  EF1D  F006         	goto	u891
  2412   000C36  EF21  F006         	goto	u890
  2413   000C3A                     u891:
  2414   000C3A  6A03               	clrf	??_s_llave_up^0,c
  2415   000C3C  2A03               	incf	??_s_llave_up^0,f,c
  2416   000C3E  EF22  F006         	goto	u898
  2417   000C42                     u890:
  2418   000C42  6A03               	clrf	??_s_llave_up^0,c
  2419   000C44                     u898:
  2420   000C44  5003               	movf	??_s_llave_up^0,w,c
  2421   000C46  6E01               	movwf	?_s_llave_up^0,c
  2422   000C48  6A02               	clrf	(?_s_llave_up+1)^0,c
  2423   000C4A  0012               	return		;funcret
  2424   000C4C                     __end_of_s_llave_up:
  2425                           	callstack 0
  2426                           
  2427 ;; *************** function _s_llave_down *****************
  2428 ;; Defined at:
  2429 ;;		line 97 in file "AP_FuncionesMDE.c"
  2430 ;; Parameters:    Size  Location     Type
  2431 ;;		None
  2432 ;; Auto vars:     Size  Location     Type
  2433 ;;		None
  2434 ;; Return value:  Size  Location     Type
  2435 ;;                  2    0[COMRAM] int 
  2436 ;; Registers used:
  2437 ;;		wreg, status,2
  2438 ;; Tracked objects:
  2439 ;;		On entry : 0/0
  2440 ;;		On exit  : 0/0
  2441 ;;		Unchanged: 0/0
  2442 ;; Data sizes:     COMRAM   BANK0   BANK1   BANK2   BANK3   BANK4   BANK5   BANK6   BANK7   BANK8   BANK9  BANK10  BANK1
      +1  BANK12  BANK13  BANK14  BANK15
  2443 ;;      Params:         2       0       0       0       0       0       0       0       0       0       0       0       
      +0       0       0       0       0
  2444 ;;      Locals:         0       0       0       0       0       0       0       0       0       0       0       0       
      +0       0       0       0       0
  2445 ;;      Temps:          1       0       0       0       0       0       0       0       0       0       0       0       
      +0       0       0       0       0
  2446 ;;      Totals:         3       0       0       0       0       0       0       0       0       0       0       0       
      +0       0       0       0       0
  2447 ;;Total ram usage:        3 bytes
  2448 ;; Hardware stack levels used: 1
  2449 ;; Hardware stack levels required when called: 2
  2450 ;; This function calls:
  2451 ;;		Nothing
  2452 ;; This function is called by:
  2453 ;;		_INTENSIDAd
  2454 ;; This function uses a non-reentrant model
  2455 ;;
  2456                           
  2457                           	psect	text22
  2458   000C4C                     __ptext22:
  2459                           	callstack 0
  2460   000C4C                     _s_llave_down:
  2461                           	callstack 26
  2462   000C4C                     
  2463                           ;AP_FuncionesMDE.c: 99:     return PORTCbits.RC1 ;
  2464   000C4C  B282               	btfsc	130,1,c	;volatile
  2465   000C4E  EF2B  F006         	goto	u901
  2466   000C52  EF2F  F006         	goto	u900
  2467   000C56                     u901:
  2468   000C56  6A03               	clrf	??_s_llave_down^0,c
  2469   000C58  2A03               	incf	??_s_llave_down^0,f,c
  2470   000C5A  EF30  F006         	goto	u908
  2471   000C5E                     u900:
  2472   000C5E  6A03               	clrf	??_s_llave_down^0,c
  2473   000C60                     u908:
  2474   000C60  5003               	movf	??_s_llave_down^0,w,c
  2475   000C62  6E01               	movwf	?_s_llave_down^0,c
  2476   000C64  6A02               	clrf	(?_s_llave_down+1)^0,c
  2477   000C66  0012               	return		;funcret
  2478   000C68                     __end_of_s_llave_down:
  2479                           	callstack 0
  2480                           
  2481 ;; *************** function _f_intup *****************
  2482 ;; Defined at:
  2483 ;;		line 111 in file "AP_FuncionesMDE.c"
  2484 ;; Parameters:    Size  Location     Type
  2485 ;;		None
  2486 ;; Auto vars:     Size  Location     Type
  2487 ;;		None
  2488 ;; Return value:  Size  Location     Type
  2489 ;;                  1    wreg      void 
  2490 ;; Registers used:
  2491 ;;		wreg, status,2, status,0, cstack
  2492 ;; Tracked objects:
  2493 ;;		On entry : 0/0
  2494 ;;		On exit  : 0/0
  2495 ;;		Unchanged: 0/0
  2496 ;; Data sizes:     COMRAM   BANK0   BANK1   BANK2   BANK3   BANK4   BANK5   BANK6   BANK7   BANK8   BANK9  BANK10  BANK1
      +1  BANK12  BANK13  BANK14  BANK15
  2497 ;;      Params:         0       0       0       0       0       0       0       0       0       0       0       0       
      +0       0       0       0       0
  2498 ;;      Locals:         0       0       0       0       0       0       0       0       0       0       0       0       
      +0       0       0       0       0
  2499 ;;      Temps:          0       0       0       0       0       0       0       0       0       0       0       0       
      +0       0       0       0       0
  2500 ;;      Totals:         0       0       0       0       0       0       0       0       0       0       0       0       
      +0       0       0       0       0
  2501 ;;Total ram usage:        0 bytes
  2502 ;; Hardware stack levels used: 1
  2503 ;; Hardware stack levels required when called: 4
  2504 ;; This function calls:
  2505 ;;		_e_antirebote
  2506 ;;		_t_antirebote
  2507 ;; This function is called by:
  2508 ;;		_INTENSIDAd
  2509 ;; This function uses a non-reentrant model
  2510 ;;
  2511                           
  2512                           	psect	text23
  2513   000B26                     __ptext23:
  2514                           	callstack 0
  2515   000B26                     _f_intup:
  2516                           	callstack 24
  2517   000B26                     
  2518                           ;AP_FuncionesMDE.c: 113:     if (e_antirebote()) {
  2519   000B26  EC35  F005         	call	_e_antirebote	;wreg free
  2520   000B2A  5033               	movf	?_e_antirebote^0,w,c
  2521   000B2C  1034               	iorwf	(?_e_antirebote+1)^0,w,c
  2522   000B2E  B4D8               	btfsc	status,2,c
  2523   000B30  EF9C  F005         	goto	u911
  2524   000B34  EF9E  F005         	goto	u910
  2525   000B38                     u911:
  2526   000B38  EFAE  F005         	goto	l47
  2527   000B3C                     u910:
  2528   000B3C                     
  2529                           ;AP_FuncionesMDE.c: 118:         led_position <<= 1;
  2530   000B3C  90D8               	bcf	status,0,c
  2531   000B3E  365D               	rlcf	_led_position^0,f,c
  2532   000B40                     
  2533                           ;AP_FuncionesMDE.c: 121:         if (led_position == 0) {
  2534   000B40  505D               	movf	_led_position^0,w,c
  2535   000B42  A4D8               	btfss	status,2,c
  2536   000B44  EFA6  F005         	goto	u921
  2537   000B48  EFA8  F005         	goto	u920
  2538   000B4C                     u921:
  2539   000B4C  EFAA  F005         	goto	l1601
  2540   000B50                     u920:
  2541   000B50                     
  2542                           ;AP_FuncionesMDE.c: 122:             led_position = 0b00000001;
  2543   000B50  0E01               	movlw	1
  2544   000B52  6E5D               	movwf	_led_position^0,c
  2545   000B54                     l1601:
  2546                           
  2547                           ;AP_FuncionesMDE.c: 124:         LATB = led_position;
  2548   000B54  C05D  FF8A         	movff	_led_position,3978	;volatile
  2549   000B58                     
  2550                           ;AP_FuncionesMDE.c: 127:         t_antirebote();
  2551   000B58  EC5D  F006         	call	_t_antirebote	;wreg free
  2552   000B5C                     l47:
  2553   000B5C  0012               	return		;funcret
  2554   000B5E                     __end_of_f_intup:
  2555                           	callstack 0
  2556                           
  2557 ;; *************** function _f_intdown *****************
  2558 ;; Defined at:
  2559 ;;		line 136 in file "AP_FuncionesMDE.c"
  2560 ;; Parameters:    Size  Location     Type
  2561 ;;		None
  2562 ;; Auto vars:     Size  Location     Type
  2563 ;;		None
  2564 ;; Return value:  Size  Location     Type
  2565 ;;                  1    wreg      void 
  2566 ;; Registers used:
  2567 ;;		wreg, status,2, status,0, cstack
  2568 ;; Tracked objects:
  2569 ;;		On entry : 0/0
  2570 ;;		On exit  : 0/0
  2571 ;;		Unchanged: 0/0
  2572 ;; Data sizes:     COMRAM   BANK0   BANK1   BANK2   BANK3   BANK4   BANK5   BANK6   BANK7   BANK8   BANK9  BANK10  BANK1
      +1  BANK12  BANK13  BANK14  BANK15
  2573 ;;      Params:         0       0       0       0       0       0       0       0       0       0       0       0       
      +0       0       0       0       0
  2574 ;;      Locals:         0       0       0       0       0       0       0       0       0       0       0       0       
      +0       0       0       0       0
  2575 ;;      Temps:          0       0       0       0       0       0       0       0       0       0       0       0       
      +0       0       0       0       0
  2576 ;;      Totals:         0       0       0       0       0       0       0       0       0       0       0       0       
      +0       0       0       0       0
  2577 ;;Total ram usage:        0 bytes
  2578 ;; Hardware stack levels used: 1
  2579 ;; Hardware stack levels required when called: 4
  2580 ;; This function calls:
  2581 ;;		_e_antirebote
  2582 ;;		_t_antirebote
  2583 ;; This function is called by:
  2584 ;;		_INTENSIDAd
  2585 ;; This function uses a non-reentrant model
  2586 ;;
  2587                           
  2588                           	psect	text24
  2589   000B5E                     __ptext24:
  2590                           	callstack 0
  2591   000B5E                     _f_intdown:
  2592                           	callstack 24
  2593   000B5E                     
  2594                           ;AP_FuncionesMDE.c: 138:     if (e_antirebote()) {
  2595   000B5E  EC35  F005         	call	_e_antirebote	;wreg free
  2596   000B62  5033               	movf	?_e_antirebote^0,w,c
  2597   000B64  1034               	iorwf	(?_e_antirebote+1)^0,w,c
  2598   000B66  B4D8               	btfsc	status,2,c
  2599   000B68  EFB8  F005         	goto	u931
  2600   000B6C  EFBA  F005         	goto	u930
  2601   000B70                     u931:
  2602   000B70  EFCA  F005         	goto	l52
  2603   000B74                     u930:
  2604   000B74                     
  2605                           ;AP_FuncionesMDE.c: 141:         led_position >>= 1;
  2606   000B74  90D8               	bcf	status,0,c
  2607   000B76  325D               	rrcf	_led_position^0,f,c
  2608   000B78                     
  2609                           ;AP_FuncionesMDE.c: 144:         if (led_position == 0) {
  2610   000B78  505D               	movf	_led_position^0,w,c
  2611   000B7A  A4D8               	btfss	status,2,c
  2612   000B7C  EFC2  F005         	goto	u941
  2613   000B80  EFC4  F005         	goto	u940
  2614   000B84                     u941:
  2615   000B84  EFC6  F005         	goto	l1615
  2616   000B88                     u940:
  2617   000B88                     
  2618                           ;AP_FuncionesMDE.c: 145:             led_position = 0b10000000;
  2619   000B88  0E80               	movlw	128
  2620   000B8A  6E5D               	movwf	_led_position^0,c
  2621   000B8C                     l1615:
  2622                           
  2623                           ;AP_FuncionesMDE.c: 147:         LATB = led_position;
  2624   000B8C  C05D  FF8A         	movff	_led_position,3978	;volatile
  2625   000B90                     
  2626                           ;AP_FuncionesMDE.c: 149:         t_antirebote();
  2627   000B90  EC5D  F006         	call	_t_antirebote	;wreg free
  2628   000B94                     l52:
  2629   000B94  0012               	return		;funcret
  2630   000B96                     __end_of_f_intdown:
  2631                           	callstack 0
  2632                           
  2633 ;; *************** function _t_antirebote *****************
  2634 ;; Defined at:
  2635 ;;		line 221 in file "AP_FuncionesMDE.c"
  2636 ;; Parameters:    Size  Location     Type
  2637 ;;		None
  2638 ;; Auto vars:     Size  Location     Type
  2639 ;;		None
  2640 ;; Return value:  Size  Location     Type
  2641 ;;                  1    wreg      void 
  2642 ;; Registers used:
  2643 ;;		None
  2644 ;; Tracked objects:
  2645 ;;		On entry : 0/0
  2646 ;;		On exit  : 0/0
  2647 ;;		Unchanged: 0/0
  2648 ;; Data sizes:     COMRAM   BANK0   BANK1   BANK2   BANK3   BANK4   BANK5   BANK6   BANK7   BANK8   BANK9  BANK10  BANK1
      +1  BANK12  BANK13  BANK14  BANK15
  2649 ;;      Params:         0       0       0       0       0       0       0       0       0       0       0       0       
      +0       0       0       0       0
  2650 ;;      Locals:         0       0       0       0       0       0       0       0       0       0       0       0       
      +0       0       0       0       0
  2651 ;;      Temps:          0       0       0       0       0       0       0       0       0       0       0       0       
      +0       0       0       0       0
  2652 ;;      Totals:         0       0       0       0       0       0       0       0       0       0       0       0       
      +0       0       0       0       0
  2653 ;;Total ram usage:        0 bytes
  2654 ;; Hardware stack levels used: 1
  2655 ;; Hardware stack levels required when called: 2
  2656 ;; This function calls:
  2657 ;;		Nothing
  2658 ;; This function is called by:
  2659 ;;		_f_intup
  2660 ;;		_f_intdown
  2661 ;;		_SWITCH
  2662 ;; This function uses a non-reentrant model
  2663 ;;
  2664                           
  2665                           	psect	text25
  2666   000CBA                     __ptext25:
  2667                           	callstack 0
  2668   000CBA                     _t_antirebote:
  2669                           	callstack 26
  2670   000CBA                     
  2671                           ;AP_FuncionesMDE.c: 223:     t_antirebote_ini = cuenta_interrup;
  2672   000CBA  C043  F03F         	movff	_cuenta_interrup,_t_antirebote_ini
  2673   000CBE  C044  F040         	movff	_cuenta_interrup+1,_t_antirebote_ini+1
  2674   000CC2  C045  F041         	movff	_cuenta_interrup+2,_t_antirebote_ini+2
  2675   000CC6  C046  F042         	movff	_cuenta_interrup+3,_t_antirebote_ini+3
  2676   000CCA  0012               	return		;funcret
  2677   000CCC                     __end_of_t_antirebote:
  2678                           	callstack 0
  2679                           
  2680 ;; *************** function _e_antirebote *****************
  2681 ;; Defined at:
  2682 ;;		line 211 in file "AP_FuncionesMDE.c"
  2683 ;; Parameters:    Size  Location     Type
  2684 ;;		None
  2685 ;; Auto vars:     Size  Location     Type
  2686 ;;  res             2   52[COMRAM] int 
  2687 ;; Return value:  Size  Location     Type
  2688 ;;                  2   50[COMRAM] int 
  2689 ;; Registers used:
  2690 ;;		wreg, status,2, status,0, cstack
  2691 ;; Tracked objects:
  2692 ;;		On entry : 0/0
  2693 ;;		On exit  : 0/0
  2694 ;;		Unchanged: 0/0
  2695 ;; Data sizes:     COMRAM   BANK0   BANK1   BANK2   BANK3   BANK4   BANK5   BANK6   BANK7   BANK8   BANK9  BANK10  BANK1
      +1  BANK12  BANK13  BANK14  BANK15
  2696 ;;      Params:         2       0       0       0       0       0       0       0       0       0       0       0       
      +0       0       0       0       0
  2697 ;;      Locals:         2       0       0       0       0       0       0       0       0       0       0       0       
      +0       0       0       0       0
  2698 ;;      Temps:          0       0       0       0       0       0       0       0       0       0       0       0       
      +0       0       0       0       0
  2699 ;;      Totals:         4       0       0       0       0       0       0       0       0       0       0       0       
      +0       0       0       0       0
  2700 ;;Total ram usage:        4 bytes
  2701 ;; Hardware stack levels used: 1
  2702 ;; Hardware stack levels required when called: 3
  2703 ;; This function calls:
  2704 ;;		___flge
  2705 ;;		___xxtofl
  2706 ;; This function is called by:
  2707 ;;		_f_intup
  2708 ;;		_f_intdown
  2709 ;;		_SWITCH
  2710 ;; This function uses a non-reentrant model
  2711 ;;
  2712                           
  2713                           	psect	text26
  2714   000A6A                     __ptext26:
  2715                           	callstack 0
  2716   000A6A                     _e_antirebote:
  2717                           	callstack 25
  2718   000A6A                     
  2719                           ;AP_FuncionesMDE.c: 213:     int res = 0 ;
  2720   000A6A  0E00               	movlw	0
  2721   000A6C  6E36               	movwf	(e_antirebote@res+1)^0,c
  2722   000A6E  0E00               	movlw	0
  2723   000A70  6E35               	movwf	e_antirebote@res^0,c
  2724   000A72                     
  2725                           ;AP_FuncionesMDE.c: 215:     if(cuenta_interrup-t_antirebote_ini >= 3.5)
  2726   000A72  503F               	movf	_t_antirebote_ini^0,w,c
  2727   000A74  5C43               	subwf	_cuenta_interrup^0,w,c
  2728   000A76  6E19               	movwf	___xxtofl@val^0,c
  2729   000A78  5040               	movf	(_t_antirebote_ini+1)^0,w,c
  2730   000A7A  5844               	subwfb	(_cuenta_interrup+1)^0,w,c
  2731   000A7C  6E1A               	movwf	(___xxtofl@val+1)^0,c
  2732   000A7E  5041               	movf	(_t_antirebote_ini+2)^0,w,c
  2733   000A80  5845               	subwfb	(_cuenta_interrup+2)^0,w,c
  2734   000A82  6E1B               	movwf	(___xxtofl@val+2)^0,c
  2735   000A84  5042               	movf	(_t_antirebote_ini+3)^0,w,c
  2736   000A86  5846               	subwfb	(_cuenta_interrup+3)^0,w,c
  2737   000A88  6E1C               	movwf	(___xxtofl@val+3)^0,c
  2738   000A8A  0E00               	movlw	0
  2739   000A8C  ECF9  F000         	call	___xxtofl
  2740   000A90  C019  F027         	movff	?___xxtofl,___flge@ff1
  2741   000A94  C01A  F028         	movff	?___xxtofl+1,___flge@ff1+1
  2742   000A98  C01B  F029         	movff	?___xxtofl+2,___flge@ff1+2
  2743   000A9C  C01C  F02A         	movff	?___xxtofl+3,___flge@ff1+3
  2744   000AA0  0E00               	movlw	0
  2745   000AA2  6E2B               	movwf	___flge@ff2^0,c
  2746   000AA4  0E00               	movlw	0
  2747   000AA6  6E2C               	movwf	(___flge@ff2+1)^0,c
  2748   000AA8  0E60               	movlw	96
  2749   000AAA  6E2D               	movwf	(___flge@ff2+2)^0,c
  2750   000AAC  0E40               	movlw	64
  2751   000AAE  6E2E               	movwf	(___flge@ff2+3)^0,c
  2752   000AB0  ECF3  F002         	call	___flge	;wreg free
  2753   000AB4  A0D8               	btfss	status,0,c
  2754   000AB6  EF5F  F005         	goto	u781
  2755   000ABA  EF61  F005         	goto	u780
  2756   000ABE                     u781:
  2757   000ABE  EF65  F005         	goto	l1523
  2758   000AC2                     u780:
  2759   000AC2                     
  2760                           ;AP_FuncionesMDE.c: 216:   res=1;
  2761   000AC2  0E00               	movlw	0
  2762   000AC4  6E36               	movwf	(e_antirebote@res+1)^0,c
  2763   000AC6  0E01               	movlw	1
  2764   000AC8  6E35               	movwf	e_antirebote@res^0,c
  2765   000ACA                     l1523:
  2766                           
  2767                           ;AP_FuncionesMDE.c: 218:     return res ;
  2768   000ACA  C035  F033         	movff	e_antirebote@res,?_e_antirebote
  2769   000ACE  C036  F034         	movff	e_antirebote@res+1,?_e_antirebote+1
  2770   000AD2  0012               	return		;funcret
  2771   000AD4                     __end_of_e_antirebote:
  2772                           	callstack 0
  2773                           
  2774 ;; *************** function ___xxtofl *****************
  2775 ;; Defined at:
  2776 ;;		line 10 in file "C:\Program Files\Microchip\xc8\v2.40\pic\sources\c99\common\xxtofl.c"
  2777 ;; Parameters:    Size  Location     Type
  2778 ;;  sign            1    wreg     unsigned char 
  2779 ;;  val             4   24[COMRAM] long 
  2780 ;; Auto vars:     Size  Location     Type
  2781 ;;  sign            1   32[COMRAM] unsigned char 
  2782 ;;  arg             4   34[COMRAM] unsigned long 
  2783 ;;  exp             1   33[COMRAM] unsigned char 
  2784 ;; Return value:  Size  Location     Type
  2785 ;;                  4   24[COMRAM] unsigned char 
  2786 ;; Registers used:
  2787 ;;		wreg, status,2, status,0
  2788 ;; Tracked objects:
  2789 ;;		On entry : 0/0
  2790 ;;		On exit  : 0/0
  2791 ;;		Unchanged: 0/0
  2792 ;; Data sizes:     COMRAM   BANK0   BANK1   BANK2   BANK3   BANK4   BANK5   BANK6   BANK7   BANK8   BANK9  BANK10  BANK1
      +1  BANK12  BANK13  BANK14  BANK15
  2793 ;;      Params:         4       0       0       0       0       0       0       0       0       0       0       0       
      +0       0       0       0       0
  2794 ;;      Locals:         6       0       0       0       0       0       0       0       0       0       0       0       
      +0       0       0       0       0
  2795 ;;      Temps:          4       0       0       0       0       0       0       0       0       0       0       0       
      +0       0       0       0       0
  2796 ;;      Totals:        14       0       0       0       0       0       0       0       0       0       0       0       
      +0       0       0       0       0
  2797 ;;Total ram usage:       14 bytes
  2798 ;; Hardware stack levels used: 1
  2799 ;; Hardware stack levels required when called: 2
  2800 ;; This function calls:
  2801 ;;		Nothing
  2802 ;; This function is called by:
  2803 ;;		_e_antirebote
  2804 ;;		_e_simular
  2805 ;;		_e_noSimular
  2806 ;; This function uses a non-reentrant model
  2807 ;;
  2808                           
  2809                           	psect	text27
  2810   0001F2                     __ptext27:
  2811                           	callstack 0
  2812   0001F2                     ___xxtofl:
  2813                           	callstack 25
  2814                           
  2815                           ;incstack = 0
  2816                           ;___xxtofl@sign stored from wreg
  2817   0001F2  6E21               	movwf	___xxtofl@sign^0,c
  2818   0001F4  5021               	movf	___xxtofl@sign^0,w,c
  2819   0001F6  B4D8               	btfsc	status,2,c
  2820   0001F8  EF00  F001         	goto	u681
  2821   0001FC  EF02  F001         	goto	u680
  2822   000200                     u681:
  2823   000200  EF24  F001         	goto	l935
  2824   000204                     u680:
  2825   000204  BE1C               	btfsc	(___xxtofl@val+3)^0,7,c
  2826   000206  EF09  F001         	goto	u690
  2827   00020A  EF07  F001         	goto	u691
  2828   00020E                     u691:
  2829   00020E  EF24  F001         	goto	l935
  2830   000212                     u690:
  2831   000212  C019  F01D         	movff	___xxtofl@val,??___xxtofl
  2832   000216  C01A  F01E         	movff	___xxtofl@val+1,??___xxtofl+1
  2833   00021A  C01B  F01F         	movff	___xxtofl@val+2,??___xxtofl+2
  2834   00021E  C01C  F020         	movff	___xxtofl@val+3,??___xxtofl+3
  2835   000222  1E1D               	comf	??___xxtofl^0,f,c
  2836   000224  1E1E               	comf	(??___xxtofl+1)^0,f,c
  2837   000226  1E1F               	comf	(??___xxtofl+2)^0,f,c
  2838   000228  1E20               	comf	(??___xxtofl+3)^0,f,c
  2839   00022A  2A1D               	incf	??___xxtofl^0,f,c
  2840   00022C  0E00               	movlw	0
  2841   00022E  221E               	addwfc	(??___xxtofl+1)^0,f,c
  2842   000230  221F               	addwfc	(??___xxtofl+2)^0,f,c
  2843   000232  2220               	addwfc	(??___xxtofl+3)^0,f,c
  2844   000234  C01D  F023         	movff	??___xxtofl,___xxtofl@arg
  2845   000238  C01E  F024         	movff	??___xxtofl+1,___xxtofl@arg+1
  2846   00023C  C01F  F025         	movff	??___xxtofl+2,___xxtofl@arg+2
  2847   000240  C020  F026         	movff	??___xxtofl+3,___xxtofl@arg+3
  2848   000244  EF2C  F001         	goto	l1477
  2849   000248                     l935:
  2850   000248  C019  F023         	movff	___xxtofl@val,___xxtofl@arg
  2851   00024C  C01A  F024         	movff	___xxtofl@val+1,___xxtofl@arg+1
  2852   000250  C01B  F025         	movff	___xxtofl@val+2,___xxtofl@arg+2
  2853   000254  C01C  F026         	movff	___xxtofl@val+3,___xxtofl@arg+3
  2854   000258                     l1477:
  2855   000258  5019               	movf	___xxtofl@val^0,w,c
  2856   00025A  101A               	iorwf	(___xxtofl@val+1)^0,w,c
  2857   00025C  101B               	iorwf	(___xxtofl@val+2)^0,w,c
  2858   00025E  101C               	iorwf	(___xxtofl@val+3)^0,w,c
  2859   000260  A4D8               	btfss	status,2,c
  2860   000262  EF35  F001         	goto	u701
  2861   000266  EF37  F001         	goto	u700
  2862   00026A                     u701:
  2863   00026A  EF41  F001         	goto	l1483
  2864   00026E                     u700:
  2865   00026E  0E00               	movlw	0
  2866   000270  6E19               	movwf	?___xxtofl^0,c
  2867   000272  0E00               	movlw	0
  2868   000274  6E1A               	movwf	(?___xxtofl+1)^0,c
  2869   000276  0E00               	movlw	0
  2870   000278  6E1B               	movwf	(?___xxtofl+2)^0,c
  2871   00027A  0E00               	movlw	0
  2872   00027C  6E1C               	movwf	(?___xxtofl+3)^0,c
  2873   00027E  EFD2  F001         	goto	l938
  2874   000282                     l1483:
  2875   000282  0E96               	movlw	150
  2876   000284  6E22               	movwf	___xxtofl@exp^0,c
  2877   000286  EF4B  F001         	goto	l1487
  2878   00028A                     l1485:
  2879   00028A  2A22               	incf	___xxtofl@exp^0,f,c
  2880   00028C  90D8               	bcf	status,0,c
  2881   00028E  3226               	rrcf	(___xxtofl@arg+3)^0,f,c
  2882   000290  3225               	rrcf	(___xxtofl@arg+2)^0,f,c
  2883   000292  3224               	rrcf	(___xxtofl@arg+1)^0,f,c
  2884   000294  3223               	rrcf	___xxtofl@arg^0,f,c
  2885   000296                     l1487:
  2886   000296  0E00               	movlw	0
  2887   000298  1423               	andwf	___xxtofl@arg^0,w,c
  2888   00029A  6E1D               	movwf	??___xxtofl^0,c
  2889   00029C  0E00               	movlw	0
  2890   00029E  1424               	andwf	(___xxtofl@arg+1)^0,w,c
  2891   0002A0  6E1E               	movwf	(??___xxtofl+1)^0,c
  2892   0002A2  0E00               	movlw	0
  2893   0002A4  1425               	andwf	(___xxtofl@arg+2)^0,w,c
  2894   0002A6  6E1F               	movwf	(??___xxtofl+2)^0,c
  2895   0002A8  0EFE               	movlw	254
  2896   0002AA  1426               	andwf	(___xxtofl@arg+3)^0,w,c
  2897   0002AC  6E20               	movwf	(??___xxtofl+3)^0,c
  2898   0002AE  501D               	movf	??___xxtofl^0,w,c
  2899   0002B0  101E               	iorwf	(??___xxtofl+1)^0,w,c
  2900   0002B2  101F               	iorwf	(??___xxtofl+2)^0,w,c
  2901   0002B4  1020               	iorwf	(??___xxtofl+3)^0,w,c
  2902   0002B6  A4D8               	btfss	status,2,c
  2903   0002B8  EF60  F001         	goto	u711
  2904   0002BC  EF62  F001         	goto	u710
  2905   0002C0                     u711:
  2906   0002C0  EF45  F001         	goto	l1485
  2907   0002C4                     u710:
  2908   0002C4  EF70  F001         	goto	l942
  2909   0002C8                     l1489:
  2910   0002C8  2A22               	incf	___xxtofl@exp^0,f,c
  2911   0002CA  0E01               	movlw	1
  2912   0002CC  2623               	addwf	___xxtofl@arg^0,f,c
  2913   0002CE  0E00               	movlw	0
  2914   0002D0  2224               	addwfc	(___xxtofl@arg+1)^0,f,c
  2915   0002D2  2225               	addwfc	(___xxtofl@arg+2)^0,f,c
  2916   0002D4  2226               	addwfc	(___xxtofl@arg+3)^0,f,c
  2917   0002D6  90D8               	bcf	status,0,c
  2918   0002D8  3226               	rrcf	(___xxtofl@arg+3)^0,f,c
  2919   0002DA  3225               	rrcf	(___xxtofl@arg+2)^0,f,c
  2920   0002DC  3224               	rrcf	(___xxtofl@arg+1)^0,f,c
  2921   0002DE  3223               	rrcf	___xxtofl@arg^0,f,c
  2922   0002E0                     l942:
  2923   0002E0  0E00               	movlw	0
  2924   0002E2  1423               	andwf	___xxtofl@arg^0,w,c
  2925   0002E4  6E1D               	movwf	??___xxtofl^0,c
  2926   0002E6  0E00               	movlw	0
  2927   0002E8  1424               	andwf	(___xxtofl@arg+1)^0,w,c
  2928   0002EA  6E1E               	movwf	(??___xxtofl+1)^0,c
  2929   0002EC  0E00               	movlw	0
  2930   0002EE  1425               	andwf	(___xxtofl@arg+2)^0,w,c
  2931   0002F0  6E1F               	movwf	(??___xxtofl+2)^0,c
  2932   0002F2  0EFF               	movlw	255
  2933   0002F4  1426               	andwf	(___xxtofl@arg+3)^0,w,c
  2934   0002F6  6E20               	movwf	(??___xxtofl+3)^0,c
  2935   0002F8  501D               	movf	??___xxtofl^0,w,c
  2936   0002FA  101E               	iorwf	(??___xxtofl+1)^0,w,c
  2937   0002FC  101F               	iorwf	(??___xxtofl+2)^0,w,c
  2938   0002FE  1020               	iorwf	(??___xxtofl+3)^0,w,c
  2939   000300  A4D8               	btfss	status,2,c
  2940   000302  EF85  F001         	goto	u721
  2941   000306  EF87  F001         	goto	u720
  2942   00030A                     u721:
  2943   00030A  EF64  F001         	goto	l1489
  2944   00030E                     u720:
  2945   00030E  EF8F  F001         	goto	l1497
  2946   000312                     l1495:
  2947   000312  0622               	decf	___xxtofl@exp^0,f,c
  2948   000314  90D8               	bcf	status,0,c
  2949   000316  3623               	rlcf	___xxtofl@arg^0,f,c
  2950   000318  3624               	rlcf	(___xxtofl@arg+1)^0,f,c
  2951   00031A  3625               	rlcf	(___xxtofl@arg+2)^0,f,c
  2952   00031C  3626               	rlcf	(___xxtofl@arg+3)^0,f,c
  2953   00031E                     l1497:
  2954   00031E  BE25               	btfsc	(___xxtofl@arg+2)^0,7,c
  2955   000320  EF94  F001         	goto	u731
  2956   000324  EF96  F001         	goto	u730
  2957   000328                     u731:
  2958   000328  EF9E  F001         	goto	l949
  2959   00032C                     u730:
  2960   00032C  0E02               	movlw	2
  2961   00032E  6022               	cpfslt	___xxtofl@exp^0,c
  2962   000330  EF9C  F001         	goto	u741
  2963   000334  EF9E  F001         	goto	u740
  2964   000338                     u741:
  2965   000338  EF89  F001         	goto	l1495
  2966   00033C                     u740:
  2967   00033C                     l949:
  2968   00033C  B022               	btfsc	___xxtofl@exp^0,0,c
  2969   00033E  EFA3  F001         	goto	u751
  2970   000342  EFA5  F001         	goto	u750
  2971   000346                     u751:
  2972   000346  EFA6  F001         	goto	l1503
  2973   00034A                     u750:
  2974   00034A  9E25               	bcf	(___xxtofl@arg+2)^0,7,c
  2975   00034C                     l1503:
  2976   00034C  90D8               	bcf	status,0,c
  2977   00034E  3222               	rrcf	___xxtofl@exp^0,f,c
  2978   000350  C022  F01D         	movff	___xxtofl@exp,??___xxtofl
  2979   000354  6A1E               	clrf	(??___xxtofl+1)^0,c
  2980   000356  6A1F               	clrf	(??___xxtofl+2)^0,c
  2981   000358  6A20               	clrf	(??___xxtofl+3)^0,c
  2982   00035A  C01D  F020         	movff	??___xxtofl,??___xxtofl+3
  2983   00035E  6A1F               	clrf	(??___xxtofl+2)^0,c
  2984   000360  6A1E               	clrf	(??___xxtofl+1)^0,c
  2985   000362  6A1D               	clrf	??___xxtofl^0,c
  2986   000364  501D               	movf	??___xxtofl^0,w,c
  2987   000366  1223               	iorwf	___xxtofl@arg^0,f,c
  2988   000368  501E               	movf	(??___xxtofl+1)^0,w,c
  2989   00036A  1224               	iorwf	(___xxtofl@arg+1)^0,f,c
  2990   00036C  501F               	movf	(??___xxtofl+2)^0,w,c
  2991   00036E  1225               	iorwf	(___xxtofl@arg+2)^0,f,c
  2992   000370  5020               	movf	(??___xxtofl+3)^0,w,c
  2993   000372  1226               	iorwf	(___xxtofl@arg+3)^0,f,c
  2994   000374  5021               	movf	___xxtofl@sign^0,w,c
  2995   000376  B4D8               	btfsc	status,2,c
  2996   000378  EFC0  F001         	goto	u761
  2997   00037C  EFC2  F001         	goto	u760
  2998   000380                     u761:
  2999   000380  EFCA  F001         	goto	l1513
  3000   000384                     u760:
  3001   000384  BE1C               	btfsc	(___xxtofl@val+3)^0,7,c
  3002   000386  EFC9  F001         	goto	u770
  3003   00038A  EFC7  F001         	goto	u771
  3004   00038E                     u771:
  3005   00038E  EFCA  F001         	goto	l1513
  3006   000392                     u770:
  3007   000392  8E26               	bsf	(___xxtofl@arg+3)^0,7,c
  3008   000394                     l1513:
  3009   000394  C023  F019         	movff	___xxtofl@arg,?___xxtofl
  3010   000398  C024  F01A         	movff	___xxtofl@arg+1,?___xxtofl+1
  3011   00039C  C025  F01B         	movff	___xxtofl@arg+2,?___xxtofl+2
  3012   0003A0  C026  F01C         	movff	___xxtofl@arg+3,?___xxtofl+3
  3013   0003A4                     l938:
  3014   0003A4  0012               	return		;funcret
  3015   0003A6                     __end_of___xxtofl:
  3016                           	callstack 0
  3017                           
  3018 ;; *************** function ___flge *****************
  3019 ;; Defined at:
  3020 ;;		line 4 in file "C:\Program Files\Microchip\xc8\v2.40\pic\sources\c99\common\flge.c"
  3021 ;; Parameters:    Size  Location     Type
  3022 ;;  ff1             4   38[COMRAM] unsigned char 
  3023 ;;  ff2             4   42[COMRAM] unsigned char 
  3024 ;; Auto vars:     Size  Location     Type
  3025 ;;		None
  3026 ;; Return value:  Size  Location     Type
  3027 ;;		None               void
  3028 ;; Registers used:
  3029 ;;		wreg, status,2, status,0
  3030 ;; Tracked objects:
  3031 ;;		On entry : 0/0
  3032 ;;		On exit  : 0/0
  3033 ;;		Unchanged: 0/0
  3034 ;; Data sizes:     COMRAM   BANK0   BANK1   BANK2   BANK3   BANK4   BANK5   BANK6   BANK7   BANK8   BANK9  BANK10  BANK1
      +1  BANK12  BANK13  BANK14  BANK15
  3035 ;;      Params:         8       0       0       0       0       0       0       0       0       0       0       0       
      +0       0       0       0       0
  3036 ;;      Locals:         0       0       0       0       0       0       0       0       0       0       0       0       
      +0       0       0       0       0
  3037 ;;      Temps:          4       0       0       0       0       0       0       0       0       0       0       0       
      +0       0       0       0       0
  3038 ;;      Totals:        12       0       0       0       0       0       0       0       0       0       0       0       
      +0       0       0       0       0
  3039 ;;Total ram usage:       12 bytes
  3040 ;; Hardware stack levels used: 1
  3041 ;; Hardware stack levels required when called: 2
  3042 ;; This function calls:
  3043 ;;		Nothing
  3044 ;; This function is called by:
  3045 ;;		_e_antirebote
  3046 ;;		_e_simular
  3047 ;;		_e_noSimular
  3048 ;; This function uses a non-reentrant model
  3049 ;;
  3050                           
  3051                           	psect	text28
  3052   0005E6                     __ptext28:
  3053                           	callstack 0
  3054   0005E6                     ___flge:
  3055                           	callstack 25
  3056   0005E6  0E00               	movlw	0
  3057   0005E8  1427               	andwf	___flge@ff1^0,w,c
  3058   0005EA  6E2F               	movwf	??___flge^0,c
  3059   0005EC  0E00               	movlw	0
  3060   0005EE  1428               	andwf	(___flge@ff1+1)^0,w,c
  3061   0005F0  6E30               	movwf	(??___flge+1)^0,c
  3062   0005F2  0E80               	movlw	128
  3063   0005F4  1429               	andwf	(___flge@ff1+2)^0,w,c
  3064   0005F6  6E31               	movwf	(??___flge+2)^0,c
  3065   0005F8  0E7F               	movlw	127
  3066   0005FA  142A               	andwf	(___flge@ff1+3)^0,w,c
  3067   0005FC  6E32               	movwf	(??___flge+3)^0,c
  3068   0005FE  502F               	movf	??___flge^0,w,c
  3069   000600  1030               	iorwf	(??___flge+1)^0,w,c
  3070   000602  1031               	iorwf	(??___flge+2)^0,w,c
  3071   000604  1032               	iorwf	(??___flge+3)^0,w,c
  3072   000606  A4D8               	btfss	status,2,c
  3073   000608  EF08  F003         	goto	u631
  3074   00060C  EF0A  F003         	goto	u630
  3075   000610                     u631:
  3076   000610  EF12  F003         	goto	l1453
  3077   000614                     u630:
  3078   000614  0E00               	movlw	0
  3079   000616  6E27               	movwf	___flge@ff1^0,c
  3080   000618  0E00               	movlw	0
  3081   00061A  6E28               	movwf	(___flge@ff1+1)^0,c
  3082   00061C  0E00               	movlw	0
  3083   00061E  6E29               	movwf	(___flge@ff1+2)^0,c
  3084   000620  0E00               	movlw	0
  3085   000622  6E2A               	movwf	(___flge@ff1+3)^0,c
  3086   000624                     l1453:
  3087   000624  0E00               	movlw	0
  3088   000626  142B               	andwf	___flge@ff2^0,w,c
  3089   000628  6E2F               	movwf	??___flge^0,c
  3090   00062A  0E00               	movlw	0
  3091   00062C  142C               	andwf	(___flge@ff2+1)^0,w,c
  3092   00062E  6E30               	movwf	(??___flge+1)^0,c
  3093   000630  0E80               	movlw	128
  3094   000632  142D               	andwf	(___flge@ff2+2)^0,w,c
  3095   000634  6E31               	movwf	(??___flge+2)^0,c
  3096   000636  0E7F               	movlw	127
  3097   000638  142E               	andwf	(___flge@ff2+3)^0,w,c
  3098   00063A  6E32               	movwf	(??___flge+3)^0,c
  3099   00063C  502F               	movf	??___flge^0,w,c
  3100   00063E  1030               	iorwf	(??___flge+1)^0,w,c
  3101   000640  1031               	iorwf	(??___flge+2)^0,w,c
  3102   000642  1032               	iorwf	(??___flge+3)^0,w,c
  3103   000644  A4D8               	btfss	status,2,c
  3104   000646  EF27  F003         	goto	u641
  3105   00064A  EF29  F003         	goto	u640
  3106   00064E                     u641:
  3107   00064E  EF31  F003         	goto	l1457
  3108   000652                     u640:
  3109   000652  0E00               	movlw	0
  3110   000654  6E2B               	movwf	___flge@ff2^0,c
  3111   000656  0E00               	movlw	0
  3112   000658  6E2C               	movwf	(___flge@ff2+1)^0,c
  3113   00065A  0E00               	movlw	0
  3114   00065C  6E2D               	movwf	(___flge@ff2+2)^0,c
  3115   00065E  0E00               	movlw	0
  3116   000660  6E2E               	movwf	(___flge@ff2+3)^0,c
  3117   000662                     l1457:
  3118   000662  AE2A               	btfss	(___flge@ff1+3)^0,7,c
  3119   000664  EF36  F003         	goto	u651
  3120   000668  EF38  F003         	goto	u650
  3121   00066C                     u651:
  3122   00066C  EF41  F003         	goto	l1461
  3123   000670                     u650:
  3124   000670  6C27               	negf	___flge@ff1^0,c
  3125   000672  1E28               	comf	(___flge@ff1+1)^0,f,c
  3126   000674  B0D8               	btfsc	status,0,c
  3127   000676  2A28               	incf	(___flge@ff1+1)^0,f,c
  3128   000678  1E29               	comf	(___flge@ff1+2)^0,f,c
  3129   00067A  B0D8               	btfsc	status,0,c
  3130   00067C  2A29               	incf	(___flge@ff1+2)^0,f,c
  3131   00067E  0E80               	movlw	128
  3132   000680  562A               	subfwb	(___flge@ff1+3)^0,f,c
  3133   000682                     l1461:
  3134   000682  AE2E               	btfss	(___flge@ff2+3)^0,7,c
  3135   000684  EF46  F003         	goto	u661
  3136   000688  EF48  F003         	goto	u660
  3137   00068C                     u661:
  3138   00068C  EF51  F003         	goto	l545
  3139   000690                     u660:
  3140   000690  6C2B               	negf	___flge@ff2^0,c
  3141   000692  1E2C               	comf	(___flge@ff2+1)^0,f,c
  3142   000694  B0D8               	btfsc	status,0,c
  3143   000696  2A2C               	incf	(___flge@ff2+1)^0,f,c
  3144   000698  1E2D               	comf	(___flge@ff2+2)^0,f,c
  3145   00069A  B0D8               	btfsc	status,0,c
  3146   00069C  2A2D               	incf	(___flge@ff2+2)^0,f,c
  3147   00069E  0E80               	movlw	128
  3148   0006A0  562E               	subfwb	(___flge@ff2+3)^0,f,c
  3149   0006A2                     l545:
  3150   0006A2  0E00               	movlw	0
  3151   0006A4  1A27               	xorwf	___flge@ff1^0,f,c
  3152   0006A6  0E00               	movlw	0
  3153   0006A8  1A28               	xorwf	(___flge@ff1+1)^0,f,c
  3154   0006AA  0E00               	movlw	0
  3155   0006AC  1A29               	xorwf	(___flge@ff1+2)^0,f,c
  3156   0006AE  0E80               	movlw	128
  3157   0006B0  1A2A               	xorwf	(___flge@ff1+3)^0,f,c
  3158   0006B2  0E00               	movlw	0
  3159   0006B4  1A2B               	xorwf	___flge@ff2^0,f,c
  3160   0006B6  0E00               	movlw	0
  3161   0006B8  1A2C               	xorwf	(___flge@ff2+1)^0,f,c
  3162   0006BA  0E00               	movlw	0
  3163   0006BC  1A2D               	xorwf	(___flge@ff2+2)^0,f,c
  3164   0006BE  0E80               	movlw	128
  3165   0006C0  1A2E               	xorwf	(___flge@ff2+3)^0,f,c
  3166   0006C2  502B               	movf	___flge@ff2^0,w,c
  3167   0006C4  5C27               	subwf	___flge@ff1^0,w,c
  3168   0006C6  502C               	movf	(___flge@ff2+1)^0,w,c
  3169   0006C8  5828               	subwfb	(___flge@ff1+1)^0,w,c
  3170   0006CA  502D               	movf	(___flge@ff2+2)^0,w,c
  3171   0006CC  5829               	subwfb	(___flge@ff1+2)^0,w,c
  3172   0006CE  502E               	movf	(___flge@ff2+3)^0,w,c
  3173   0006D0  582A               	subwfb	(___flge@ff1+3)^0,w,c
  3174   0006D2  B0D8               	btfsc	status,0,c
  3175   0006D4  EF6E  F003         	goto	u671
  3176   0006D8  EF70  F003         	goto	u670
  3177   0006DC                     u671:
  3178   0006DC  EF73  F003         	goto	l1467
  3179   0006E0                     u670:
  3180   0006E0  90D8               	bcf	status,0,c
  3181   0006E2  EF74  F003         	goto	l550
  3182   0006E6                     l1467:
  3183   0006E6  80D8               	bsf	status,0,c
  3184   0006E8                     l550:
  3185   0006E8  0012               	return		;funcret
  3186   0006EA                     __end_of___flge:
  3187                           	callstack 0
  3188                           
  3189 ;; *************** function _Inicializar *****************
  3190 ;; Defined at:
  3191 ;;		line 170 in file "AP_Inicializacion.c"
  3192 ;; Parameters:    Size  Location     Type
  3193 ;;		None
  3194 ;; Auto vars:     Size  Location     Type
  3195 ;;		None
  3196 ;; Return value:  Size  Location     Type
  3197 ;;                  1    wreg      void 
  3198 ;; Registers used:
  3199 ;;		wreg, status,2, cstack
  3200 ;; Tracked objects:
  3201 ;;		On entry : 0/0
  3202 ;;		On exit  : 0/0
  3203 ;;		Unchanged: 0/0
  3204 ;; Data sizes:     COMRAM   BANK0   BANK1   BANK2   BANK3   BANK4   BANK5   BANK6   BANK7   BANK8   BANK9  BANK10  BANK1
      +1  BANK12  BANK13  BANK14  BANK15
  3205 ;;      Params:         0       0       0       0       0       0       0       0       0       0       0       0       
      +0       0       0       0       0
  3206 ;;      Locals:         0       0       0       0       0       0       0       0       0       0       0       0       
      +0       0       0       0       0
  3207 ;;      Temps:          0       0       0       0       0       0       0       0       0       0       0       0       
      +0       0       0       0       0
  3208 ;;      Totals:         0       0       0       0       0       0       0       0       0       0       0       0       
      +0       0       0       0       0
  3209 ;;Total ram usage:        0 bytes
  3210 ;; Hardware stack levels used: 1
  3211 ;; Hardware stack levels required when called: 3
  3212 ;; This function calls:
  3213 ;;		_Inicializar_INTENSIDAd
  3214 ;;		_Inicializar_LED
  3215 ;;		_Inicializar_SWITCH
  3216 ;;		_iniciar_timer0
  3217 ;;		_timer0_config
  3218 ;; This function is called by:
  3219 ;;		_main
  3220 ;; This function uses a non-reentrant model
  3221 ;;
  3222                           
  3223                           	psect	text29
  3224   000C80                     __ptext29:
  3225                           	callstack 0
  3226   000C80                     _Inicializar:
  3227                           	callstack 27
  3228   000C80                     
  3229                           ;AP_Inicializacion.c: 174:     timer0_config();
  3230   000C80  ECFB  F005         	call	_timer0_config	;wreg free
  3231                           
  3232                           ;AP_Inicializacion.c: 175:  iniciar_timer0();
  3233   000C84  EC77  F006         	call	_iniciar_timer0	;wreg free
  3234                           
  3235                           ;AP_Inicializacion.c: 176:  Inicializar_LED( );
  3236   000C88  ECCB  F005         	call	_Inicializar_LED	;wreg free
  3237                           
  3238                           ;AP_Inicializacion.c: 177:     Inicializar_SWITCH( );
  3239   000C8C  EC66  F006         	call	_Inicializar_SWITCH	;wreg free
  3240                           
  3241                           ;AP_Inicializacion.c: 178:     Inicializar_INTENSIDAd();
  3242   000C90  EC7D  F006         	call	_Inicializar_INTENSIDAd	;wreg free
  3243   000C94  0012               	return		;funcret
  3244   000C96                     __end_of_Inicializar:
  3245                           	callstack 0
  3246                           
  3247 ;; *************** function _timer0_config *****************
  3248 ;; Defined at:
  3249 ;;		line 44 in file "AP_Inicializacion.c"
  3250 ;; Parameters:    Size  Location     Type
  3251 ;;		None
  3252 ;; Auto vars:     Size  Location     Type
  3253 ;;		None
  3254 ;; Return value:  Size  Location     Type
  3255 ;;                  1    wreg      void 
  3256 ;; Registers used:
  3257 ;;		wreg, status,2
  3258 ;; Tracked objects:
  3259 ;;		On entry : 0/0
  3260 ;;		On exit  : 0/0
  3261 ;;		Unchanged: 0/0
  3262 ;; Data sizes:     COMRAM   BANK0   BANK1   BANK2   BANK3   BANK4   BANK5   BANK6   BANK7   BANK8   BANK9  BANK10  BANK1
      +1  BANK12  BANK13  BANK14  BANK15
  3263 ;;      Params:         0       0       0       0       0       0       0       0       0       0       0       0       
      +0       0       0       0       0
  3264 ;;      Locals:         0       0       0       0       0       0       0       0       0       0       0       0       
      +0       0       0       0       0
  3265 ;;      Temps:          0       0       0       0       0       0       0       0       0       0       0       0       
      +0       0       0       0       0
  3266 ;;      Totals:         0       0       0       0       0       0       0       0       0       0       0       0       
      +0       0       0       0       0
  3267 ;;Total ram usage:        0 bytes
  3268 ;; Hardware stack levels used: 1
  3269 ;; Hardware stack levels required when called: 2
  3270 ;; This function calls:
  3271 ;;		Nothing
  3272 ;; This function is called by:
  3273 ;;		_Inicializar
  3274 ;; This function uses a non-reentrant model
  3275 ;;
  3276                           
  3277                           	psect	text30
  3278   000BF6                     __ptext30:
  3279                           	callstack 0
  3280   000BF6                     _timer0_config:
  3281                           	callstack 27
  3282   000BF6                     
  3283                           ;AP_Inicializacion.c: 47:     OSCCON = 0b01101100;
  3284   000BF6  0E6C               	movlw	108
  3285   000BF8  6ED3               	movwf	211,c	;volatile
  3286   000BFA                     
  3287                           ;AP_Inicializacion.c: 49:     T0CONbits.T08BIT = 0;
  3288   000BFA  9CD5               	bcf	213,6,c	;volatile
  3289   000BFC                     
  3290                           ;AP_Inicializacion.c: 50:     T0CONbits.T0CS = 0;
  3291   000BFC  9AD5               	bcf	213,5,c	;volatile
  3292   000BFE                     
  3293                           ;AP_Inicializacion.c: 51:     T0CONbits.PSA = 0;
  3294   000BFE  96D5               	bcf	213,3,c	;volatile
  3295                           
  3296                           ;AP_Inicializacion.c: 52:     T0CONbits.T0PS = 1;
  3297   000C00  50D5               	movf	213,w,c	;volatile
  3298   000C02  0BF8               	andlw	-8
  3299   000C04  0901               	iorlw	1
  3300   000C06  6ED5               	movwf	213,c	;volatile
  3301                           
  3302                           ;AP_Inicializacion.c: 54:     INTCON = 0;
  3303   000C08  0E00               	movlw	0
  3304   000C0A  6EF2               	movwf	242,c	;volatile
  3305   000C0C                     
  3306                           ;AP_Inicializacion.c: 55:     INTCONbits.TMR0IE = 1;
  3307   000C0C  8AF2               	bsf	242,5,c	;volatile
  3308   000C0E                     
  3309                           ;AP_Inicializacion.c: 56:     INTCONbits.TMR0IF = 0;
  3310   000C0E  94F2               	bcf	242,2,c	;volatile
  3311   000C10                     
  3312                           ;AP_Inicializacion.c: 57:     INTCONbits.GIE = 1;
  3313   000C10  8EF2               	bsf	242,7,c	;volatile
  3314   000C12  0012               	return		;funcret
  3315   000C14                     __end_of_timer0_config:
  3316                           	callstack 0
  3317                           
  3318 ;; *************** function _iniciar_timer0 *****************
  3319 ;; Defined at:
  3320 ;;		line 66 in file "AP_Inicializacion.c"
  3321 ;; Parameters:    Size  Location     Type
  3322 ;;		None
  3323 ;; Auto vars:     Size  Location     Type
  3324 ;;		None
  3325 ;; Return value:  Size  Location     Type
  3326 ;;                  1    wreg      void 
  3327 ;; Registers used:
  3328 ;;		wreg, status,2
  3329 ;; Tracked objects:
  3330 ;;		On entry : 0/0
  3331 ;;		On exit  : 0/0
  3332 ;;		Unchanged: 0/0
  3333 ;; Data sizes:     COMRAM   BANK0   BANK1   BANK2   BANK3   BANK4   BANK5   BANK6   BANK7   BANK8   BANK9  BANK10  BANK1
      +1  BANK12  BANK13  BANK14  BANK15
  3334 ;;      Params:         0       0       0       0       0       0       0       0       0       0       0       0       
      +0       0       0       0       0
  3335 ;;      Locals:         0       0       0       0       0       0       0       0       0       0       0       0       
      +0       0       0       0       0
  3336 ;;      Temps:          0       0       0       0       0       0       0       0       0       0       0       0       
      +0       0       0       0       0
  3337 ;;      Totals:         0       0       0       0       0       0       0       0       0       0       0       0       
      +0       0       0       0       0
  3338 ;;Total ram usage:        0 bytes
  3339 ;; Hardware stack levels used: 1
  3340 ;; Hardware stack levels required when called: 2
  3341 ;; This function calls:
  3342 ;;		Nothing
  3343 ;; This function is called by:
  3344 ;;		_Inicializar
  3345 ;; This function uses a non-reentrant model
  3346 ;;
  3347                           
  3348                           	psect	text31
  3349   000CEE                     __ptext31:
  3350                           	callstack 0
  3351   000CEE                     _iniciar_timer0:
  3352                           	callstack 27
  3353   000CEE                     
  3354                           ;AP_Inicializacion.c: 79:    TMR0H = 0x3C;
  3355   000CEE  0E3C               	movlw	60
  3356   000CF0  6ED7               	movwf	215,c	;volatile
  3357                           
  3358                           ;AP_Inicializacion.c: 80:    TMR0L = 0xB0;
  3359   000CF2  0EB0               	movlw	176
  3360   000CF4  6ED6               	movwf	214,c	;volatile
  3361   000CF6                     
  3362                           ;AP_Inicializacion.c: 81:    T0CONbits.TMR0ON = 1;
  3363   000CF6  8ED5               	bsf	213,7,c	;volatile
  3364   000CF8  0012               	return		;funcret
  3365   000CFA                     __end_of_iniciar_timer0:
  3366                           	callstack 0
  3367                           
  3368 ;; *************** function _Inicializar_SWITCH *****************
  3369 ;; Defined at:
  3370 ;;		line 132 in file "AP_Inicializacion.c"
  3371 ;; Parameters:    Size  Location     Type
  3372 ;;		None
  3373 ;; Auto vars:     Size  Location     Type
  3374 ;;		None
  3375 ;; Return value:  Size  Location     Type
  3376 ;;                  1    wreg      void 
  3377 ;; Registers used:
  3378 ;;		wreg, status,2
  3379 ;; Tracked objects:
  3380 ;;		On entry : 0/0
  3381 ;;		On exit  : 0/0
  3382 ;;		Unchanged: 0/0
  3383 ;; Data sizes:     COMRAM   BANK0   BANK1   BANK2   BANK3   BANK4   BANK5   BANK6   BANK7   BANK8   BANK9  BANK10  BANK1
      +1  BANK12  BANK13  BANK14  BANK15
  3384 ;;      Params:         0       0       0       0       0       0       0       0       0       0       0       0       
      +0       0       0       0       0
  3385 ;;      Locals:         0       0       0       0       0       0       0       0       0       0       0       0       
      +0       0       0       0       0
  3386 ;;      Temps:          0       0       0       0       0       0       0       0       0       0       0       0       
      +0       0       0       0       0
  3387 ;;      Totals:         0       0       0       0       0       0       0       0       0       0       0       0       
      +0       0       0       0       0
  3388 ;;Total ram usage:        0 bytes
  3389 ;; Hardware stack levels used: 1
  3390 ;; Hardware stack levels required when called: 2
  3391 ;; This function calls:
  3392 ;;		Nothing
  3393 ;; This function is called by:
  3394 ;;		_Inicializar
  3395 ;; This function uses a non-reentrant model
  3396 ;;
  3397                           
  3398                           	psect	text32
  3399   000CCC                     __ptext32:
  3400                           	callstack 0
  3401   000CCC                     _Inicializar_SWITCH:
  3402                           	callstack 27
  3403   000CCC                     
  3404                           ;AP_Inicializacion.c: 136:  confirmado_on = 0 ;
  3405   000CCC  0E00               	movlw	0
  3406   000CCE  6E4C               	movwf	(_confirmado_on+1)^0,c
  3407   000CD0  0E00               	movlw	0
  3408   000CD2  6E4B               	movwf	_confirmado_on^0,c
  3409                           
  3410                           ;AP_Inicializacion.c: 137:     confirmado_off=1;
  3411   000CD4  0E00               	movlw	0
  3412   000CD6  6E5C               	movwf	(_confirmado_off+1)^0,c
  3413   000CD8  0E01               	movlw	1
  3414   000CDA  6E5B               	movwf	_confirmado_off^0,c
  3415   000CDC  0012               	return		;funcret
  3416   000CDE                     __end_of_Inicializar_SWITCH:
  3417                           	callstack 0
  3418                           
  3419 ;; *************** function _Inicializar_LED *****************
  3420 ;; Defined at:
  3421 ;;		line 104 in file "AP_Inicializacion.c"
  3422 ;; Parameters:    Size  Location     Type
  3423 ;;		None
  3424 ;; Auto vars:     Size  Location     Type
  3425 ;;		None
  3426 ;; Return value:  Size  Location     Type
  3427 ;;                  1    wreg      void 
  3428 ;; Registers used:
  3429 ;;		wreg, status,2
  3430 ;; Tracked objects:
  3431 ;;		On entry : 0/0
  3432 ;;		On exit  : 0/0
  3433 ;;		Unchanged: 0/0
  3434 ;; Data sizes:     COMRAM   BANK0   BANK1   BANK2   BANK3   BANK4   BANK5   BANK6   BANK7   BANK8   BANK9  BANK10  BANK1
      +1  BANK12  BANK13  BANK14  BANK15
  3435 ;;      Params:         0       0       0       0       0       0       0       0       0       0       0       0       
      +0       0       0       0       0
  3436 ;;      Locals:         0       0       0       0       0       0       0       0       0       0       0       0       
      +0       0       0       0       0
  3437 ;;      Temps:          0       0       0       0       0       0       0       0       0       0       0       0       
      +0       0       0       0       0
  3438 ;;      Totals:         0       0       0       0       0       0       0       0       0       0       0       0       
      +0       0       0       0       0
  3439 ;;Total ram usage:        0 bytes
  3440 ;; Hardware stack levels used: 1
  3441 ;; Hardware stack levels required when called: 2
  3442 ;; This function calls:
  3443 ;;		Nothing
  3444 ;; This function is called by:
  3445 ;;		_Inicializar
  3446 ;; This function uses a non-reentrant model
  3447 ;;
  3448                           
  3449                           	psect	text33
  3450   000B96                     __ptext33:
  3451                           	callstack 0
  3452   000B96                     _Inicializar_LED:
  3453                           	callstack 27
  3454   000B96                     
  3455                           ;AP_Inicializacion.c: 107:  confirmado_on = 0 ;
  3456   000B96  0E00               	movlw	0
  3457   000B98  6E4C               	movwf	(_confirmado_on+1)^0,c
  3458   000B9A  0E00               	movlw	0
  3459   000B9C  6E4B               	movwf	_confirmado_on^0,c
  3460                           
  3461                           ;AP_Inicializacion.c: 108:  confirmado_off = 1 ;
  3462   000B9E  0E00               	movlw	0
  3463   000BA0  6E5C               	movwf	(_confirmado_off+1)^0,c
  3464   000BA2  0E01               	movlw	1
  3465   000BA4  6E5B               	movwf	_confirmado_off^0,c
  3466                           
  3467                           ;AP_Inicializacion.c: 109:  intensidadlvl = 0 ;
  3468   000BA6  0E00               	movlw	0
  3469   000BA8  6E4A               	movwf	(_intensidadlvl+1)^0,c
  3470   000BAA  0E00               	movlw	0
  3471   000BAC  6E49               	movwf	_intensidadlvl^0,c
  3472                           
  3473                           ;AP_Inicializacion.c: 110:     ANSEL=0;
  3474   000BAE  0E00               	movlw	0
  3475   000BB0  6E7E               	movwf	126,c	;volatile
  3476                           
  3477                           ;AP_Inicializacion.c: 111:  ANSELH=0;
  3478   000BB2  0E00               	movlw	0
  3479   000BB4  6E7F               	movwf	127,c	;volatile
  3480   000BB6                     
  3481                           ;AP_Inicializacion.c: 112:  TRISDbits.TRISD0=0;
  3482   000BB6  9095               	bcf	149,0,c	;volatile
  3483   000BB8                     
  3484                           ;AP_Inicializacion.c: 113:     LATDbits.LATD0 = 0;
  3485   000BB8  908C               	bcf	140,0,c	;volatile
  3486   000BBA                     
  3487                           ;AP_Inicializacion.c: 114:     TRISCbits.TRISC0=1;
  3488   000BBA  8094               	bsf	148,0,c	;volatile
  3489   000BBC                     
  3490                           ;AP_Inicializacion.c: 115:     TRISCbits.TRISC1=1;
  3491   000BBC  8294               	bsf	148,1,c	;volatile
  3492   000BBE                     
  3493                           ;AP_Inicializacion.c: 116:     TRISCbits.TRISC2=1;
  3494   000BBE  8494               	bsf	148,2,c	;volatile
  3495                           
  3496                           ;AP_Inicializacion.c: 117:     TRISB=0;
  3497   000BC0  0E00               	movlw	0
  3498   000BC2  6E93               	movwf	147,c	;volatile
  3499                           
  3500                           ;AP_Inicializacion.c: 118:     LATB=0;
  3501   000BC4  0E00               	movlw	0
  3502   000BC6  6E8A               	movwf	138,c	;volatile
  3503   000BC8  0012               	return		;funcret
  3504   000BCA                     __end_of_Inicializar_LED:
  3505                           	callstack 0
  3506                           
  3507 ;; *************** function _Inicializar_INTENSIDAd *****************
  3508 ;; Defined at:
  3509 ;;		line 142 in file "AP_Inicializacion.c"
  3510 ;; Parameters:    Size  Location     Type
  3511 ;;		None
  3512 ;; Auto vars:     Size  Location     Type
  3513 ;;		None
  3514 ;; Return value:  Size  Location     Type
  3515 ;;                  1    wreg      void 
  3516 ;; Registers used:
  3517 ;;		wreg, status,2
  3518 ;; Tracked objects:
  3519 ;;		On entry : 0/0
  3520 ;;		On exit  : 0/0
  3521 ;;		Unchanged: 0/0
  3522 ;; Data sizes:     COMRAM   BANK0   BANK1   BANK2   BANK3   BANK4   BANK5   BANK6   BANK7   BANK8   BANK9  BANK10  BANK1
      +1  BANK12  BANK13  BANK14  BANK15
  3523 ;;      Params:         0       0       0       0       0       0       0       0       0       0       0       0       
      +0       0       0       0       0
  3524 ;;      Locals:         0       0       0       0       0       0       0       0       0       0       0       0       
      +0       0       0       0       0
  3525 ;;      Temps:          0       0       0       0       0       0       0       0       0       0       0       0       
      +0       0       0       0       0
  3526 ;;      Totals:         0       0       0       0       0       0       0       0       0       0       0       0       
      +0       0       0       0       0
  3527 ;;Total ram usage:        0 bytes
  3528 ;; Hardware stack levels used: 1
  3529 ;; Hardware stack levels required when called: 2
  3530 ;; This function calls:
  3531 ;;		Nothing
  3532 ;; This function is called by:
  3533 ;;		_Inicializar
  3534 ;; This function uses a non-reentrant model
  3535 ;;
  3536                           
  3537                           	psect	text34
  3538   000CFA                     __ptext34:
  3539                           	callstack 0
  3540   000CFA                     _Inicializar_INTENSIDAd:
  3541                           	callstack 27
  3542   000CFA                     
  3543                           ;AP_Inicializacion.c: 145:  intensidadlvl=0;
  3544   000CFA  0E00               	movlw	0
  3545   000CFC  6E4A               	movwf	(_intensidadlvl+1)^0,c
  3546   000CFE  0E00               	movlw	0
  3547   000D00  6E49               	movwf	_intensidadlvl^0,c
  3548   000D02  0012               	return		;funcret
  3549   000D04                     __end_of_Inicializar_INTENSIDAd:
  3550                           	callstack 0
  3551                           
  3552 ;; *************** function _High_Priority_Interrupt *****************
  3553 ;; Defined at:
  3554 ;;		line 86 in file "AP_Inicializacion.c"
  3555 ;; Parameters:    Size  Location     Type
  3556 ;;		None
  3557 ;; Auto vars:     Size  Location     Type
  3558 ;;		None
  3559 ;; Return value:  Size  Location     Type
  3560 ;;                  1    wreg      void 
  3561 ;; Registers used:
  3562 ;;		wreg, status,2, status,0, cstack
  3563 ;; Tracked objects:
  3564 ;;		On entry : 0/0
  3565 ;;		On exit  : 0/0
  3566 ;;		Unchanged: 0/0
  3567 ;; Data sizes:     COMRAM   BANK0   BANK1   BANK2   BANK3   BANK4   BANK5   BANK6   BANK7   BANK8   BANK9  BANK10  BANK1
      +1  BANK12  BANK13  BANK14  BANK15
  3568 ;;      Params:         0       0       0       0       0       0       0       0       0       0       0       0       
      +0       0       0       0       0
  3569 ;;      Locals:         0       0       0       0       0       0       0       0       0       0       0       0       
      +0       0       0       0       0
  3570 ;;      Temps:          0       0       0       0       0       0       0       0       0       0       0       0       
      +0       0       0       0       0
  3571 ;;      Totals:         0       0       0       0       0       0       0       0       0       0       0       0       
      +0       0       0       0       0
  3572 ;;Total ram usage:        0 bytes
  3573 ;; Hardware stack levels used: 1
  3574 ;; Hardware stack levels required when called: 1
  3575 ;; This function calls:
  3576 ;;		_recargar_timer
  3577 ;; This function is called by:
  3578 ;;		Interrupt level 2
  3579 ;; This function uses a non-reentrant model
  3580 ;;
  3581                           
  3582                           	psect	intcode
  3583   000008                     __pintcode:
  3584                           	callstack 0
  3585   000008                     _High_Priority_Interrupt:
  3586                           	callstack 24
  3587                           
  3588                           ;incstack = 0
  3589   000008  825E               	bsf	int$flags,1,c	;set compiler interrupt flag (level 2)
  3590   00000A                     
  3591                           ;AP_Inicializacion.c: 89:         cuenta_interrup++;
  3592   00000A  0E01               	movlw	1
  3593   00000C  2643               	addwf	_cuenta_interrup^0,f,c
  3594   00000E  0E00               	movlw	0
  3595   000010  2244               	addwfc	(_cuenta_interrup+1)^0,f,c
  3596   000012  2245               	addwfc	(_cuenta_interrup+2)^0,f,c
  3597   000014  2246               	addwfc	(_cuenta_interrup+3)^0,f,c
  3598   000016                     
  3599                           ;AP_Inicializacion.c: 90:         recargar_timer();
  3600   000016  EC82  F006         	call	_recargar_timer	;wreg free
  3601   00001A                     
  3602                           ;AP_Inicializacion.c: 91:         INTCONbits.TMR0IF=0;
  3603   00001A  94F2               	bcf	242,2,c	;volatile
  3604   00001C  925E               	bcf	int$flags,1,c	;clear compiler interrupt flag (level 2)
  3605   00001E  0011               	retfie		f
  3606   000020                     __end_of_High_Priority_Interrupt:
  3607                           	callstack 0
  3608                           
  3609 ;; *************** function _recargar_timer *****************
  3610 ;; Defined at:
  3611 ;;		line 60 in file "AP_Inicializacion.c"
  3612 ;; Parameters:    Size  Location     Type
  3613 ;;		None
  3614 ;; Auto vars:     Size  Location     Type
  3615 ;;		None
  3616 ;; Return value:  Size  Location     Type
  3617 ;;                  1    wreg      void 
  3618 ;; Registers used:
  3619 ;;		wreg, status,2
  3620 ;; Tracked objects:
  3621 ;;		On entry : 0/0
  3622 ;;		On exit  : 0/0
  3623 ;;		Unchanged: 0/0
  3624 ;; Data sizes:     COMRAM   BANK0   BANK1   BANK2   BANK3   BANK4   BANK5   BANK6   BANK7   BANK8   BANK9  BANK10  BANK1
      +1  BANK12  BANK13  BANK14  BANK15
  3625 ;;      Params:         0       0       0       0       0       0       0       0       0       0       0       0       
      +0       0       0       0       0
  3626 ;;      Locals:         0       0       0       0       0       0       0       0       0       0       0       0       
      +0       0       0       0       0
  3627 ;;      Temps:          0       0       0       0       0       0       0       0       0       0       0       0       
      +0       0       0       0       0
  3628 ;;      Totals:         0       0       0       0       0       0       0       0       0       0       0       0       
      +0       0       0       0       0
  3629 ;;Total ram usage:        0 bytes
  3630 ;; Hardware stack levels used: 1
  3631 ;; This function calls:
  3632 ;;		Nothing
  3633 ;; This function is called by:
  3634 ;;		_High_Priority_Interrupt
  3635 ;; This function uses a non-reentrant model
  3636 ;;
  3637                           
  3638                           	psect	text36
  3639   000D04                     __ptext36:
  3640                           	callstack 0
  3641   000D04                     _recargar_timer:
  3642                           	callstack 24
  3643   000D04                     
  3644                           ;AP_Inicializacion.c: 62:     TMR0H = 0x3C;
  3645   000D04  0E3C               	movlw	60
  3646   000D06  6ED7               	movwf	215,c	;volatile
  3647                           
  3648                           ;AP_Inicializacion.c: 63:     TMR0L = 0xB0;
  3649   000D08  0EB0               	movlw	176
  3650   000D0A  6ED6               	movwf	214,c	;volatile
  3651   000D0C  0012               	return		;funcret
  3652   000D0E                     __end_of_recargar_timer:
  3653                           	callstack 0
  3654   000000                     
  3655                           	psect	rparam
  3656   000000                     
  3657                           	psect	temp
  3658   00005E                     btemp:
  3659                           	callstack 0
  3660   00005E                     	ds	1
  3661   000000                     int$flags	set	btemp
  3662   000000                     wtemp8	set	btemp+1
  3663   000000                     ttemp5	set	btemp+1
  3664   000000                     ttemp6	set	btemp+4
  3665   000000                     ttemp7	set	btemp+8
  3666                           
  3667                           	psect	config
  3668                           
  3669                           ; Padding undefined space
  3670   300000                     	org	3145728
  3671   300000  FF                 	db	255
  3672                           
  3673                           ;Config register CONFIG1H @ 0x300001
  3674                           ;	Oscillator Selection bits
  3675                           ;	FOSC = INTIO67, Internal oscillator block, port function on RA6 and RA7
  3676                           ;	Fail-Safe Clock Monitor Enable bit
  3677                           ;	FCMEN = OFF, Fail-Safe Clock Monitor disabled
  3678                           ;	Internal/External Oscillator Switchover bit
  3679                           ;	IESO = OFF, Oscillator Switchover mode disabled
  3680   300001                     	org	3145729
  3681   300001  08                 	db	8
  3682                           
  3683                           ;Config register CONFIG2L @ 0x300002
  3684                           ;	Power-up Timer Enable bit
  3685                           ;	PWRT = OFF, PWRT disabled
  3686                           ;	Brown-out Reset Enable bits
  3687                           ;	BOREN = OFF, Brown-out Reset disabled in hardware and software
  3688                           ;	Brown Out Reset Voltage bits
  3689                           ;	BORV = 18, VBOR set to 1.8 V nominal
  3690   300002                     	org	3145730
  3691   300002  19                 	db	25
  3692                           
  3693                           ;Config register CONFIG2H @ 0x300003
  3694                           ;	Watchdog Timer Enable bit
  3695                           ;	WDTEN = OFF, WDT is controlled by SWDTEN bit of the WDTCON register
  3696                           ;	Watchdog Timer Postscale Select bits
  3697                           ;	WDTPS = 32768, 1:32768
  3698   300003                     	org	3145731
  3699   300003  1E                 	db	30
  3700                           
  3701                           ; Padding undefined space
  3702   300004                     	org	3145732
  3703   300004  FF                 	db	255
  3704                           
  3705                           ;Config register CONFIG3H @ 0x300005
  3706                           ;	CCP2 MUX bit
  3707                           ;	CCP2MX = PORTC, CCP2 input/output is multiplexed with RC1
  3708                           ;	PORTB A/D Enable bit
  3709                           ;	PBADEN = OFF, PORTB<4:0> pins are configured as digital I/O on Reset
  3710                           ;	Low-Power Timer1 Oscillator Enable bit
  3711                           ;	LPT1OSC = OFF, Timer1 configured for higher power operation
  3712                           ;	HFINTOSC Fast Start-up
  3713                           ;	HFOFST = OFF, The system clock is held off until the HFINTOSC is stable.
  3714                           ;	MCLR Pin Enable bit
  3715                           ;	MCLRE = OFF, RE3 input pin enabled; MCLR disabled
  3716   300005                     	org	3145733
  3717   300005  01                 	db	1
  3718                           
  3719                           ;Config register CONFIG4L @ 0x300006
  3720                           ;	Stack Full/Underflow Reset Enable bit
  3721                           ;	STVREN = OFF, Stack full/underflow will not cause Reset
  3722                           ;	Single-Supply ICSP Enable bit
  3723                           ;	LVP = OFF, Single-Supply ICSP disabled
  3724                           ;	Extended Instruction Set Enable bit
  3725                           ;	XINST = OFF, Instruction set extension and Indexed Addressing mode disabled (Legacy mo
      +                          de)
  3726                           ;	Background Debugger Enable bit
  3727                           ;	DEBUG = OFF, Background debugger disabled, RB6 and RB7 configured as general purpose I
      +                          /O pins
  3728   300006                     	org	3145734
  3729   300006  80                 	db	128
  3730                           
  3731                           ; Padding undefined space
  3732   300007                     	org	3145735
  3733   300007  FF                 	db	255
  3734                           
  3735                           ;Config register CONFIG5L @ 0x300008
  3736                           ;	Code Protection Block 0
  3737                           ;	CP0 = OFF, Block 0 (000800-003FFFh) not code-protected
  3738                           ;	Code Protection Block 1
  3739                           ;	CP1 = OFF, Block 1 (004000-007FFFh) not code-protected
  3740                           ;	Code Protection Block 2
  3741                           ;	CP2 = OFF, Block 2 (008000-00BFFFh) not code-protected
  3742                           ;	Code Protection Block 3
  3743                           ;	CP3 = OFF, Block 3 (00C000-00FFFFh) not code-protected
  3744   300008                     	org	3145736
  3745   300008  0F                 	db	15
  3746                           
  3747                           ;Config register CONFIG5H @ 0x300009
  3748                           ;	Boot Block Code Protection bit
  3749                           ;	CPB = OFF, Boot block (000000-0007FFh) not code-protected
  3750                           ;	Data EEPROM Code Protection bit
  3751                           ;	CPD = OFF, Data EEPROM not code-protected
  3752   300009                     	org	3145737
  3753   300009  C0                 	db	192
  3754                           
  3755                           ;Config register CONFIG6L @ 0x30000A
  3756                           ;	Write Protection Block 0
  3757                           ;	WRT0 = OFF, Block 0 (000800-003FFFh) not write-protected
  3758                           ;	Write Protection Block 1
  3759                           ;	WRT1 = OFF, Block 1 (004000-007FFFh) not write-protected
  3760                           ;	Write Protection Block 2
  3761                           ;	WRT2 = OFF, Block 2 (008000-00BFFFh) not write-protected
  3762                           ;	Write Protection Block 3
  3763                           ;	WRT3 = OFF, Block 3 (00C000h-00FFFFh) not write-protected
  3764   30000A                     	org	3145738
  3765   30000A  0F                 	db	15
  3766                           
  3767                           ;Config register CONFIG6H @ 0x30000B
  3768                           ;	Configuration Register Write Protection bit
  3769                           ;	WRTC = OFF, Configuration registers (300000-3000FFh) not write-protected
  3770                           ;	Boot Block Write Protection bit
  3771                           ;	WRTB = OFF, Boot Block (000000-0007FFh) not write-protected
  3772                           ;	Data EEPROM Write Protection bit
  3773                           ;	WRTD = OFF, Data EEPROM not write-protected
  3774   30000B                     	org	3145739
  3775   30000B  E0                 	db	224
  3776                           
  3777                           ;Config register CONFIG7L @ 0x30000C
  3778                           ;	Table Read Protection Block 0
  3779                           ;	EBTR0 = OFF, Block 0 (000800-003FFFh) not protected from table reads executed in other
      +                           blocks
  3780                           ;	Table Read Protection Block 1
  3781                           ;	EBTR1 = OFF, Block 1 (004000-007FFFh) not protected from table reads executed in other
      +                           blocks
  3782                           ;	Table Read Protection Block 2
  3783                           ;	EBTR2 = OFF, Block 2 (008000-00BFFFh) not protected from table reads executed in other
      +                           blocks
  3784                           ;	Table Read Protection Block 3
  3785                           ;	EBTR3 = OFF, Block 3 (00C000-00FFFFh) not protected from table reads executed in other
      +                           blocks
  3786   30000C                     	org	3145740
  3787   30000C  0F                 	db	15
  3788                           
  3789                           ;Config register CONFIG7H @ 0x30000D
  3790                           ;	Boot Block Table Read Protection bit
  3791                           ;	EBTRB = OFF, Boot Block (000000-0007FFh) not protected from table reads executed in ot
      +                          her blocks
  3792   30000D                     	org	3145741
  3793   30000D  40                 	db	64
  3794                           tosu	equ	0xFFF
  3795                           tosh	equ	0xFFE
  3796                           tosl	equ	0xFFD
  3797                           stkptr	equ	0xFFC
  3798                           pclatu	equ	0xFFB
  3799                           pclath	equ	0xFFA
  3800                           pcl	equ	0xFF9
  3801                           tblptru	equ	0xFF8
  3802                           tblptrh	equ	0xFF7
  3803                           tblptrl	equ	0xFF6
  3804                           tablat	equ	0xFF5
  3805                           prodh	equ	0xFF4
  3806                           prodl	equ	0xFF3
  3807                           indf0	equ	0xFEF
  3808                           postinc0	equ	0xFEE
  3809                           postdec0	equ	0xFED
  3810                           preinc0	equ	0xFEC
  3811                           plusw0	equ	0xFEB
  3812                           fsr0h	equ	0xFEA
  3813                           fsr0l	equ	0xFE9
  3814                           wreg	equ	0xFE8
  3815                           indf1	equ	0xFE7
  3816                           postinc1	equ	0xFE6
  3817                           postdec1	equ	0xFE5
  3818                           preinc1	equ	0xFE4
  3819                           plusw1	equ	0xFE3
  3820                           fsr1h	equ	0xFE2
  3821                           fsr1l	equ	0xFE1
  3822                           bsr	equ	0xFE0
  3823                           indf2	equ	0xFDF
  3824                           postinc2	equ	0xFDE
  3825                           postdec2	equ	0xFDD
  3826                           preinc2	equ	0xFDC
  3827                           plusw2	equ	0xFDB
  3828                           fsr2h	equ	0xFDA
  3829                           fsr2l	equ	0xFD9
  3830                           status	equ	0xFD8

Data Sizes:
    Strings     0
    Constant    0
    Data        1
    BSS         22
    Persistent  10
    Stack       0

Auto Spaces:
    Space          Size  Autos    Used
    COMRAM           94     62      93
    BANK0           160      0       2
    BANK1           256      0       0
    BANK2           256      0       0
    BANK3           256      0       0
    BANK4           256      0       0
    BANK5           256      0       0
    BANK6           256      0       0
    BANK7           256      0       0
    BANK8           256      0       0
    BANK9           256      0       0
    BANK10          256      0       0
    BANK11          256      0       0
    BANK12          256      0       0
    BANK13          256      0       0
    BANK14          256      0       0
    BANK15           96      0       0

Pointer List with Targets:

    None.

Critical Paths under _main in COMRAM

    _MaquinaDeEstados->_MDE4
    _SWITCH->_e_antirebote
    _MDE4->_e_noSimular
    _MDE4->_e_simular
    _e_simular->___flge
    _e_noSimular->___flge
    _rand->___lmul
    ___awmod->_rand
    _f_intup->_e_antirebote
    _f_intdown->_e_antirebote
    _e_antirebote->___flge
    ___xxtofl->___awmod
    ___flge->___xxtofl

Critical Paths under _High_Priority_Interrupt in COMRAM

    None.

Critical Paths under _main in BANK0

    None.

Critical Paths under _High_Priority_Interrupt in BANK0

    None.

Critical Paths under _main in BANK1

    None.

Critical Paths under _High_Priority_Interrupt in BANK1

    None.

Critical Paths under _main in BANK2

    None.

Critical Paths under _High_Priority_Interrupt in BANK2

    None.

Critical Paths under _main in BANK3

    None.

Critical Paths under _High_Priority_Interrupt in BANK3

    None.

Critical Paths under _main in BANK4

    None.

Critical Paths under _High_Priority_Interrupt in BANK4

    None.

Critical Paths under _main in BANK5

    None.

Critical Paths under _High_Priority_Interrupt in BANK5

    None.

Critical Paths under _main in BANK6

    None.

Critical Paths under _High_Priority_Interrupt in BANK6

    None.

Critical Paths under _main in BANK7

    None.

Critical Paths under _High_Priority_Interrupt in BANK7

    None.

Critical Paths under _main in BANK8

    None.

Critical Paths under _High_Priority_Interrupt in BANK8

    None.

Critical Paths under _main in BANK9

    None.

Critical Paths under _High_Priority_Interrupt in BANK9

    None.

Critical Paths under _main in BANK10

    None.

Critical Paths under _High_Priority_Interrupt in BANK10

    None.

Critical Paths under _main in BANK11

    None.

Critical Paths under _High_Priority_Interrupt in BANK11

    None.

Critical Paths under _main in BANK12

    None.

Critical Paths under _High_Priority_Interrupt in BANK12

    None.

Critical Paths under _main in BANK13

    None.

Critical Paths under _High_Priority_Interrupt in BANK13

    None.

Critical Paths under _main in BANK14

    None.

Critical Paths under _High_Priority_Interrupt in BANK14

    None.

Critical Paths under _main in BANK15

    None.

Critical Paths under _High_Priority_Interrupt in BANK15

    None.

Call Graph Tables:

 ---------------------------------------------------------------------------------
 (Depth) Function   	        Calls       Base Space   Used Autos Params    Refs
 ---------------------------------------------------------------------------------
 (0) _main                                                 0     0      0    9311
                        _Inicializar
                   _MaquinaDeEstados
 ---------------------------------------------------------------------------------
 (1) _MaquinaDeEstados                                     0     0      0    9311
                         _INTENSIDAd
                                _LED
                               _MDE4
                             _SWITCH
 ---------------------------------------------------------------------------------
 (2) _SWITCH                                               4     2      2    1492
                                             54 COMRAM     4     2      2
                       _e_antirebote
                           _f_intoff
                            _f_inton
                         _f_position
                        _s_llave_off
                         _s_llave_on
                       _t_antirebote
 ---------------------------------------------------------------------------------
 (3) _s_llave_on                                           3     1      2       0
                                              0 COMRAM     3     1      2
 ---------------------------------------------------------------------------------
 (3) _s_llave_off                                          2     0      2       0
                                              0 COMRAM     2     0      2
 ---------------------------------------------------------------------------------
 (3) _f_position                                           0     0      0       0
 ---------------------------------------------------------------------------------
 (3) _f_inton                                              0     0      0       0
 ---------------------------------------------------------------------------------
 (3) _f_intoff                                             0     0      0       0
 ---------------------------------------------------------------------------------
 (2) _MDE4                                                 4     2      2    4840
                                             58 COMRAM     4     2      2
                        _e_noSimular
                          _e_simular
                           _f_apagar
                         _f_encender
                         _f_noSimula
                        _t_noSimular
                          _t_simular
 ---------------------------------------------------------------------------------
 (3) _t_simular                                            0     0      0       0
 ---------------------------------------------------------------------------------
 (3) _t_noSimular                                          0     0      0       0
 ---------------------------------------------------------------------------------
 (3) _f_noSimula                                           0     0      0       0
 ---------------------------------------------------------------------------------
 (3) _e_simular                                            8     6      2    2357
                                             50 COMRAM     8     6      2
                            ___awmod
                             ___flge
                           ___xxtofl
                               _rand
 ---------------------------------------------------------------------------------
 (3) _e_noSimular                                          8     6      2    2357
                                             50 COMRAM     8     6      2
                            ___awmod
                             ___flge
                           ___xxtofl
                               _rand
 ---------------------------------------------------------------------------------
 (4) _rand                                                 6     4      2     370
                                             12 COMRAM     6     4      2
                             ___lmul
 ---------------------------------------------------------------------------------
 (5) ___lmul                                              12     4      8     370
                                              0 COMRAM    12     4      8
 ---------------------------------------------------------------------------------
 (4) ___awmod                                              6     2      4     600
                                             18 COMRAM     6     2      4
                               _rand (ARG)
 ---------------------------------------------------------------------------------
 (2) _LED                                                  4     2      2     124
                                              0 COMRAM     4     2      2
                           _f_apagar
                         _f_encender
 ---------------------------------------------------------------------------------
 (3) _f_encender                                           0     0      0       0
 ---------------------------------------------------------------------------------
 (3) _f_apagar                                             0     0      0       0
 ---------------------------------------------------------------------------------
 (2) _INTENSIDAd                                           4     2      2    2855
                                             54 COMRAM     4     2      2
                          _f_intdown
                            _f_intup
                       _s_llave_down
                         _s_llave_up
 ---------------------------------------------------------------------------------
 (3) _s_llave_up                                           3     1      2       0
                                              0 COMRAM     3     1      2
 ---------------------------------------------------------------------------------
 (3) _s_llave_down                                         3     1      2       0
                                              0 COMRAM     3     1      2
 ---------------------------------------------------------------------------------
 (3) _f_intup                                              0     0      0    1364
                       _e_antirebote
                       _t_antirebote
 ---------------------------------------------------------------------------------
 (3) _f_intdown                                            0     0      0    1364
                       _e_antirebote
                       _t_antirebote
 ---------------------------------------------------------------------------------
 (3) _t_antirebote                                         0     0      0       0
 ---------------------------------------------------------------------------------
 (3) _e_antirebote                                         4     2      2    1364
                                             50 COMRAM     4     2      2
                             ___flge
                           ___xxtofl
 ---------------------------------------------------------------------------------
 (4) ___xxtofl                                            14    10      4     702
                                             24 COMRAM    14    10      4
                            ___awmod (ARG)
                               _rand (ARG)
 ---------------------------------------------------------------------------------
 (4) ___flge                                              12     4      8     638
                                             38 COMRAM    12     4      8
                           ___xxtofl (ARG)
 ---------------------------------------------------------------------------------
 (1) _Inicializar                                          0     0      0       0
             _Inicializar_INTENSIDAd
                    _Inicializar_LED
                 _Inicializar_SWITCH
                     _iniciar_timer0
                      _timer0_config
 ---------------------------------------------------------------------------------
 (2) _timer0_config                                        0     0      0       0
 ---------------------------------------------------------------------------------
 (2) _iniciar_timer0                                       0     0      0       0
 ---------------------------------------------------------------------------------
 (2) _Inicializar_SWITCH                                   0     0      0       0
 ---------------------------------------------------------------------------------
 (2) _Inicializar_LED                                      0     0      0       0
 ---------------------------------------------------------------------------------
 (2) _Inicializar_INTENSIDAd                               0     0      0       0
 ---------------------------------------------------------------------------------
 Estimated maximum stack depth 5
 ---------------------------------------------------------------------------------
 (Depth) Function   	        Calls       Base Space   Used Autos Params    Refs
 ---------------------------------------------------------------------------------
 (6) _High_Priority_Interrupt                              0     0      0       0
                     _recargar_timer
 ---------------------------------------------------------------------------------
 (7) _recargar_timer                                       0     0      0       0
 ---------------------------------------------------------------------------------
 Estimated maximum stack depth 7
 ---------------------------------------------------------------------------------

 Call Graph Graphs:

 _main (ROOT)
   _Inicializar
     _Inicializar_INTENSIDAd
     _Inicializar_LED
     _Inicializar_SWITCH
     _iniciar_timer0
     _timer0_config
   _MaquinaDeEstados
     _INTENSIDAd
       _f_intdown
         _e_antirebote
           ___flge
             ___xxtofl (ARG)
               ___awmod (ARG)
                 _rand (ARG)
                   ___lmul
               _rand (ARG)
           ___xxtofl
         _t_antirebote
       _f_intup
         _e_antirebote
         _t_antirebote
       _s_llave_down
       _s_llave_up
     _LED
       _f_apagar
       _f_encender
     _MDE4
       _e_noSimular
         ___awmod
         ___flge
         ___xxtofl
         _rand
       _e_simular
         ___awmod
         ___flge
         ___xxtofl
         _rand
       _f_apagar
       _f_encender
       _f_noSimula
       _t_noSimular
       _t_simular
     _SWITCH
       _e_antirebote
       _f_intoff
       _f_inton
       _f_position
       _s_llave_off
       _s_llave_on
       _t_antirebote

 _High_Priority_Interrupt (ROOT)
   _recargar_timer

 Address spaces:
Name               Size   Autos  Total    Cost      Usage
BIGRAM             F5F      0       0      46        0.0%
EEDATA             400      0       0       0        0.0%
BITBANK14          100      0       0      33        0.0%
BANK14             100      0       0      34        0.0%
BITBANK13          100      0       0      32        0.0%
BANK13             100      0       0      30        0.0%
BITBANK12          100      0       0      28        0.0%
BANK12             100      0       0      29        0.0%
BITBANK11          100      0       0      26        0.0%
BANK11             100      0       0      27        0.0%
BITBANK10          100      0       0      24        0.0%
BANK10             100      0       0      25        0.0%
BITBANK9           100      0       0      22        0.0%
BANK9              100      0       0      23        0.0%
BITBANK8           100      0       0      20        0.0%
BANK8              100      0       0      21        0.0%
BITBANK7           100      0       0      18        0.0%
BANK7              100      0       0      19        0.0%
BITBANK6           100      0       0      16        0.0%
BANK6              100      0       0      17        0.0%
BITBANK5           100      0       0      14        0.0%
BANK5              100      0       0      15        0.0%
BITBANK4           100      0       0      12        0.0%
BANK4              100      0       0      13        0.0%
BITBANK3           100      0       0      10        0.0%
BANK3              100      0       0      11        0.0%
BITBANK2           100      0       0       8        0.0%
BANK2              100      0       0       9        0.0%
BITBANK1           100      0       0       6        0.0%
BANK1              100      0       0       7        0.0%
BITBANK0            A0      0       0       4        0.0%
BANK0               A0      0       2       5        1.2%
BITBANK15           60      0       0      35        0.0%
BANK15              60      0       0      36        0.0%
BITCOMRAM           5E      0       0       0        0.0%
COMRAM              5E     3E      5D       1       98.9%
BITBIGSFRhhhlh      3D      0       0      40        0.0%
BITBIGSFRll         1E      0       0      45        0.0%
BITBIGSFRhhhhhl     1A      0       0      38        0.0%
BITBIGSFRhhhhhh      D      0       0      37        0.0%
BITBIGSFRhl          7      0       0      43        0.0%
BITBIGSFRhhhll       6      0       0      41        0.0%
BITBIGSFRlh          2      0       0      44        0.0%
BITBIGSFRhhhhl       1      0       0      39        0.0%
BITBIGSFRhhl         1      0       0      42        0.0%
BIGSFR               0      0       0     200        0.0%
BITSFR               0      0       0     200        0.0%
SFR                  0      0       0     200        0.0%
STACK                0      0       0       2        0.0%
NULL                 0      0       0       0        0.0%
ABS                  0      0      5F      31        0.0%
DATA                 0      0      5F       3        0.0%
CODE                 0      0       0       0        0.0%


Microchip Technology PIC18 Macro Assembler V2.40 build 20220703182018 
Symbol Table                                                                                   Tue Nov 19 14:09:03 2024

                                l30 0C7E                                  l33 0C4A  
                                l42 0D18                                  l27 0C2E  
                                l52 0B94                                  l36 0C66  
                                l61 0D12                                  l47 0B5C  
                                l55 0D24                                  l71 0D26  
                                l39 0D1C                                  l65 0AD2  
                                l81 079A                                  l58 0D20  
                                l74 0CB8                                  l68 0CCA  
                                l85 084C                                  l77 0CA6  
                               l130 0CF8                                 l211 01F0  
                               l124 0C12                                 l141 0CDC  
                               l150 0C94                                 l222 0992  
                               l144 0D02                                 l216 098A  
                               l138 0BC8                                 l227 04C0  
                               l243 05DC                                 l252 05E4  
                               l238 04C8                                 l263 0B24  
                               l291 0A58                                 l524 08FC  
                               l292 0A68                                 l550 06E8  
                               l199 01E8                                 l545 06A2  
                               l942 02E0                                 l935 0248  
                               l938 03A4                                 l949 033C  
                               l959 09FE                         ?_INTENSIDAd 0037  
                               _LED 08FE                                 u610 0A1E  
                               u611 0A1A                                 u700 026E  
                               u620 0A58                                 u701 026A  
                               u621 0A54                                 u630 0614  
                               u710 02C4                                 u631 0610  
                               u711 02C0                                 u640 0652  
                               u720 030E                                 u800 0860  
                               u641 064E                                 u721 030A  
                               u801 085C                                 u650 0670  
                               u730 032C                                 u810 087A  
                               u651 066C                                 u731 0328  
                               u811 0876                                 u660 0690  
                               u740 033C                                 u900 0C5E  
                               u820 0894                                 u661 068C  
                               u741 0338                                 u901 0C56  
                               u821 0890                                 u670 06E0  
                               u750 034A                                 u910 0B3C  
                               u830 08B2                                 u671 06DC  
                               u751 0346                                 u911 0B38  
                               u831 08AE                                 u760 0384  
                               u680 0204                                 u920 0B50  
                               u840 08C8                                 u761 0380  
                               u681 0200                                 u921 0B4C  
                               u841 08C4                                 u770 0392  
                               u690 0212                                 u930 0B74  
                               u850 08EC                                 u771 038E  
                               u691 020E                                 u931 0B70  
                               u851 08E8                                 u780 0AC2  
                               u940 0B88                                 u908 0C60  
                               u860 0C26                                 u781 0ABE  
                               u941 0B84                                 u861 0C1E  
                               u790 09F0                                 u950 078A  
                               u870 0C78                                 u951 0786  
                               u871 0C72                                 u960 083C  
                               u880 0C7A                                 u961 0838  
                               u890 0C42                                 u970 005A  
                               u891 0C3A                                 u795 09E6  
                               u971 0056                                 u868 0C28  
                               u980 0080                                 u981 007C  
                               u990 00A6                                 u991 00A2  
                               u898 0C44                        ___awmod@sign 0018  
                               wreg 000FE8                                ?_LED 0001  
                              l1181 0BFA                                l1501 034A  
                              l1191 0C10                                l1183 0BFC  
                              l1511 0392                                l1503 034C  
                              l1193 0CEE                                l1185 0BFE  
                              l1513 0394                                l1505 0350  
                              l1521 0AC2                                l1601 0B54  
                              l1441 0A10                                l1195 0CF6  
                              l1187 0C0C                                l1179 0BF6  
                              l1451 0614                                l1507 0374  
                              l1523 0ACA                                l1611 0B78  
                              l1603 0B58                                l1443 0A1E  
                              l1531 09D0                                l1189 0C0E  
                              l1461 0682                                l1453 0624  
                              l1509 0384                                l1517 0A6A  
                              l1613 0B88                                l1621 0D22  
                              l1541 0868                                l1445 0A2E  
                              l1701 00C4                                l1463 0690  
                              l1455 0652                                l1471 01F4  
                              l1519 0A72                                l1527 0CBA  
                              l1615 0B8C                                l1607 0B5E  
                              l1623 0D1E                                l1551 089C  
                              l1543 086C                                l1535 084E  
                              l1447 0A38                                l1439 0A00  
                              l1631 0C96                                l1711 0114  
                              l1703 00DA                                l1465 06E0  
                              l1457 0662                                l1449 05E6  
                              l1473 0204                                l1617 0B90  
                              l1609 0B74                                l1561 08D6  
                              l1553 08A4                                l1545 087A  
                              l1537 0852                                l1529 0994  
                              l1641 0792                                l1633 06EA  
                              l1625 0D0E                                l1721 0174  
                              l1713 012A                                l1705 00F0  
                              l1467 06E6                                l1459 0670  
                              l1491 02CA                                l1483 0282  
                              l1475 0212                                l1803 0484  
                              l1555 08B2                                l1563 08DC  
                              l1547 0882                                l1539 0860  
                              l1651 083C                                l1635 06F2  
                              l1811 04CE                                l1571 0C14  
                              l1723 0184                                l1715 0140  
                              l1707 0100                                l1731 01A4  
                              l1661 0BB8                                l1493 02D6  
                              l1485 028A                                l1477 0258  
                              l1741 0906                                l1565 08EC  
                              l1557 08C8                                l1549 0894  
                              l1653 0844                                l1645 079C  
                              l1637 073A                                l1629 0CA8  
                              l1821 0520                                l1813 04E2  
                              l1725 0188                                l1717 0148  
                              l1709 0108                                l1663 0BBA  
                              l1671 0CCC                                l1495 0312  
                              l1487 0296                                l1479 026E  
                              l1583 0C4C                                l1743 0912  
                              l1567 08F4                                l1559 08D0  
                              l1647 07A4                                l1639 078A  
                              l1831 0556                                l1823 0528  
                              l1815 04F4                                l1575 0C68  
                              l1727 0198                                l1719 015E  
                              l1665 0BBC                                l1657 0B96  
                              l1497 031E                                l1489 02C8  
                              l1593 0B26                                l1745 0924  
                              l1737 08FE                                l1649 07EC  
                              l1841 0594                                l1833 055E  
                              l1825 0530                                l1817 0506  
                              l1809 04CA                                l1681 0028  
                              l1675 0CFA                                l1667 0BBE  
                              l1659 0BB6                                l1851 0C80  
                              l1499 032C                                l1595 0B3C  
                              l1579 0C30                                l1771 03D0  
                              l1755 094A                                l1747 0928  
                              l1739 0902                                l1835 056A  
                              l1827 053C                                l1819 050E  
                              l1587 0D1A                                l1691 0080  
                              l1683 0044                                l1597 0B40  
                              l1781 041A                                l1773 03E6  
                              l1765 03A6                                l1749 0934  
                              l1837 0580                                l1829 0552  
                              l1845 05A0                                l1589 0D14  
                              l1693 0084                                l1685 005A  
                              l1599 0B50                                l1791 0456  
                              l1783 041E                                l1775 03EA  
                              l1767 03AA                                l1759 0956  
                              l1839 0588                                l1695 0090  
                              l1687 005E                                l1679 0024  
                              l1855 0AD4                                l1863 0CDE  
                              l1785 042A                                l1777 03F2  
                              l1769 03BE                                l1697 00A6  
                              l1689 006A                                l1865 0CE2  
                              l1795 0462                                l1787 043C  
                              l1779 0404                                l1883 01BA  
                              l1699 00BC                                l1789 0444  
                              l1885 05B6                                l1799 0478  
                              l1887 096C                                l1889 049A  
                              _MDE4 04CA                                u1000 00BC  
                              u1001 00B8                                u1010 00DA  
                              u1011 00D6                                u1100 03E6  
                              u1020 00F0                                u1101 03E2  
                              u1021 00EC                                u1110 0404  
                              u1030 012A                                u1111 0400  
                              u1031 0126                                u1120 041A  
                              u1200 0580                                u1040 0140  
                              u1121 0416                                u1201 057C  
                              u1041 013C                                u1130 043C  
                              u1050 015E                                u1131 0438  
                              u1051 015A                                u1140 0456  
                              u1060 0174                                u1141 0452  
                              u1061 0170                                u1150 0474  
                              u1070 0924                                u1151 0470  
                              u1071 0920                                u1080 0946  
                              u1160 04F4                                u1081 0942  
                              u1161 04F0                                u1090 03D0  
                              u1170 0506                                u1091 03CC  
                              u1171 0502                                u1180 0520  
                              u1181 051C                                u1190 0552  
                              _LATB 000F8A                                u1191 054E  
    __end_of_Inicializar_INTENSIDAd 0D04                                _main 0CDE  
                              _rand 0994                                _seed 0051  
                     ??_Inicializar 0001                                btemp 005E  
                  _MaquinaDeEstados 0AD4                                start 0020  
                      ___param_bank 000000                               ??_LED 0003  
                             ?_MDE4 003B         MaquinaDeEstados@estados_LED 0059  
                             ?_main 0001                               ?_rand 000D  
                   __end_of___awmod 08FE                               _ANSEL 000F7E  
                             i2l127 0D0C                               i2l135 001C  
                             _TMR0H 000FD7                               _TMR0L 000FD6  
                             _TRISB 000F93                     __end_of_f_inton 0D1E  
                   __end_of_f_intup 0B5E                 ___lmul@multiplicand 0005  
                   _Inicializar_LED 0B96                        SWITCH@Estado 0037  
                             tablat 000FF5                               ttemp5 005F  
                             ttemp6 0062                               ttemp7 0066  
                             status 000FD8                               wtemp8 005F  
                      __end_of_MDE4 05E6                     __initialization 0BCA  
                      ?_s_llave_off 0001                   _botonEstadoPrevio 004D  
                      __end_of_main 0CEE                        __end_of_rand 0A00  
               __end_of_Inicializar 0C96                              ??_MDE4 003D  
                      ?_t_noSimular 0001                              ??_main 003F  
                            ??_rand 000F                       __activetblptr 000002  
                            _ANSELH 000F7F                              i2l1411 0016  
                            i2l1413 001A                              i2l1409 000A  
                            i2l1391 0D04                              _INTCON 000FF2  
                            _OSCCON 000FD3                    __end_of_f_apagar 0D26  
                            _SWITCH 0024                    __end_of___xxtofl 03A6  
                  __end_of_f_intoff 0D1A                              ___flge 05E6  
                            ___lmul 0A00                           ??___awmod 0017  
                  ??_recargar_timer 0001                              clear_0 0BE2  
                   ___awmod@divisor 0015                           ??_f_inton 0001  
                         ??_f_intup 0037             __end_of_Inicializar_LED 0BCA  
                            isa$std 000001                        _e_antirebote 0A6A  
                   ___awmod@counter 0017                        __pdataCOMRAM 005D  
                            tblptrh 000FF7                              tblptrl 000FF6  
                            tblptru 000FF8                           LED@Estado 0001  
                        ___flge@ff1 0027                          ___flge@ff2 002B  
                      ___xxtofl@arg 0023                        ___xxtofl@exp 0022  
                      ___xxtofl@val 0019                          __accesstop 0060  
           __end_of__initialization 0BE8                         _Inicializar 0C80  
                     ?_t_antirebote 0001                       ___rparam_used 000001  
                    __pcstackCOMRAM 0001                       ?_s_llave_down 0001  
           _High_Priority_Interrupt 0008                        ??_INTENSIDAd 0039  
          __end_of_MaquinaDeEstados 0B26               __end_of_timer0_config 0C14  
                        _f_encender 0D1E                      ??_t_antirebote 0001  
                        __pnvCOMRAM 0055                             ?_SWITCH 0037  
                   _cuenta_interrup 0043                          _f_noSimula 0D26  
                __end_of_INTENSIDAd 04CA                      ??_s_llave_down 0003  
                           ?___flge 0027                             ?___lmul 0001  
                        _f_position 0D0E                      ___lmul@product 0009  
                  ?_Inicializar_LED 0001                           ?_f_apagar 0001  
                         ?___xxtofl 0019                           ?_f_intoff 0001  
                    _iniciar_timer0 0CEE                   __end_of_f_intdown 0B96  
                 __end_of_e_simular 079C                             __Hparam 0000  
                           __Lparam 0000           ??_High_Priority_Interrupt 0001  
                           ___awmod 084E                             __pcinit 0BCA  
                           _f_inton 0D1A                             _f_intup 0B26  
                           __ramtop 1000                             __ptext0 0CDE  
                           __ptext1 0AD4                             __ptext2 0024  
                           __ptext3 0C14                             __ptext4 0C68  
                           __ptext5 0D0E                             __ptext6 0D1A  
                           __ptext7 0D14                             __ptext8 04CA  
                           __ptext9 0C96                           _T0CONbits 000FD5  
                        ??_f_apagar 0001                          ??___xxtofl 001D  
                  ___awmod@dividend 0013                       ??_e_noSimular 0035  
                        ??_f_intoff 0001                          _s_llave_on 0C14  
                        _s_llave_up 0C30                       _intensidadlvl 0049  
                       ?_f_encender 0001                end_of_initialization 0BE8  
            __end_of_iniciar_timer0 0CFA                          MDE4@Estado 003B  
                 __end_of_t_simular 0CA8                       __Lmediumconst 0000  
                       ?_f_noSimula 0001                             postinc0 000FEE  
                       ?_f_position 0001                           _PORTCbits 000F82  
              __end_of_t_antirebote 0CCC                          _simulacion 0047  
                     ___xxtofl@sign 0021                           _TRISCbits 000F94  
                         _TRISDbits 000F95            ??_Inicializar_INTENSIDAd 0001  
              __end_of_s_llave_down 0C68          __end_of_Inicializar_SWITCH 0CDE  
                   ?_iniciar_timer0 0001                 __end_of_e_noSimular 084E  
                      _led_position 005D                        ?_Inicializar 0001  
                    __end_of_SWITCH 01F2                      __end_of___flge 06EA  
                    __end_of___lmul 0A6A                       __pidataCOMRAM 0D28  
                   e_antirebote@res 0035                   ?_MaquinaDeEstados 0001  
               start_initialization 0BCA                         __end_of_LED 0994  
                ??_MaquinaDeEstados 003F                         ?_s_llave_on 0001  
                       ?_s_llave_up 0001                            ??_SWITCH 0039  
    MaquinaDeEstados@estados_SWITCH 0057                            ??___flge 002F  
                          ??___lmul 0009                    _t_antirebote_ini 003F  
                 _antiReboteCounter 004F                         __pbssCOMRAM 003F  
                       _e_noSimular 079C                      e_noSimular@res 0039  
                    e_noSimular@var 0035                           __pnvBANK0 0060  
                         _f_intdown 0B5E                           _e_simular 06EA  
                     ??_s_llave_off 0003                           __pintcode 0008  
                          ?___awmod 0013                            ?_f_inton 0001  
                     ??_t_noSimular 0001                            ?_f_intup 0001  
                      ??_f_encender 0001                            _LATBbits 000F8A  
                          _LATDbits 000F8C                        ??_f_noSimula 0001  
                      _t_antirebote 0CBA                          ?_f_intdown 0001  
                         _t_simular 0C96              _Inicializar_INTENSIDAd 0CFA  
                        ?_e_simular 0033                        _s_llave_down 0C4C  
                      ??_f_position 0001        MaquinaDeEstados@estados_MDE4 0060  
                     ?_e_antirebote 0033                  __end_of_f_encender 0D22  
               __end_of_s_llave_off 0C80                    ??_iniciar_timer0 0001  
MaquinaDeEstados@estados_INTENSIDAd 0055                  __end_of_f_noSimula 0D28  
               __end_of_t_noSimular 0CBA                       _timer0_config 0BF6  
                 ___lmul@multiplier 0001                  __end_of_f_position 0D14  
          ?_High_Priority_Interrupt 0001                            __Hrparam 0000  
                        ?_t_simular 0001                            __Lrparam 0000  
                _Inicializar_SWITCH 0CCC                      ??_e_antirebote 0035  
                      e_simular@res 0039                        e_simular@var 0035  
               ?_Inicializar_SWITCH 0001                            _f_apagar 0D22  
                          ___xxtofl 01F2                      ?_timer0_config 0001  
                          _f_intoff 0D14                        ??_s_llave_on 0003  
                      ??_s_llave_up 0003                      _recargar_timer 0D04  
                          __ptext10 0CA8                            __ptext11 0D26  
                          __ptext20 03A6                            __ptext12 06EA  
                          __ptext21 0C30                            __ptext13 079C  
                          __ptext30 0BF6                            __ptext22 0C4C  
                          __ptext14 0994                            __ptext31 0CEE  
                          __ptext23 0B26                            __ptext15 0A00  
                          __ptext32 0CCC                            __ptext24 0B5E  
                          __ptext16 084E                            __ptext33 0B96  
                          __ptext25 0CBA                            __ptext17 08FE  
                          __ptext34 0CFA                            __ptext26 0A6A  
                          __ptext18 0D1E                            __ptext27 01F2  
                          __ptext19 0D22                            __ptext36 0D04  
                          __ptext28 05E6                            __ptext29 0C80  
              ??_Inicializar_SWITCH 0001                   ??_Inicializar_LED 0001  
                       ??_f_intdown 0037                         ??_e_simular 0035  
                          isa$xinst 000000                         _s_llave_off 0C68  
                          int$flags 005E                  __end_of_s_llave_on 0C30  
                __end_of_s_llave_up 0C4C                         _t_noSimular 0CA8  
                        _INTENSIDAd 03A6              __end_of_recargar_timer 0D0E  
                        _INTCONbits 000FF2                        ?_e_noSimular 0033  
                          intlevel2 0000     __end_of_High_Priority_Interrupt 0020  
                    _confirmado_off 005B                         ??_t_simular 0001  
                   ??_timer0_config 0001                       _confirmado_on 004B  
                   ?_recargar_timer 0001                __end_of_e_antirebote 0AD4  
                  INTENSIDAd@Estado 0037             ?_Inicializar_INTENSIDAd 0001  
